Archive member included because of file (symbol)

c:/siliconlabs/simplicitystudio/v4/developer/toolchains/gnu_arm/4.9_2015q3/bin/../lib/gcc/arm-none-eabi/4.9.3/../../../../arm-none-eabi/lib/armv7e-m/softfp\libm.a(lib_a-w_pow.o)
                              ./src/i2c.o (pow)
c:/siliconlabs/simplicitystudio/v4/developer/toolchains/gnu_arm/4.9_2015q3/bin/../lib/gcc/arm-none-eabi/4.9.3/../../../../arm-none-eabi/lib/armv7e-m/softfp\libm.a(lib_a-e_pow.o)
                              c:/siliconlabs/simplicitystudio/v4/developer/toolchains/gnu_arm/4.9_2015q3/bin/../lib/gcc/arm-none-eabi/4.9.3/../../../../arm-none-eabi/lib/armv7e-m/softfp\libm.a(lib_a-w_pow.o) (__ieee754_pow)
c:/siliconlabs/simplicitystudio/v4/developer/toolchains/gnu_arm/4.9_2015q3/bin/../lib/gcc/arm-none-eabi/4.9.3/../../../../arm-none-eabi/lib/armv7e-m/softfp\libm.a(lib_a-e_sqrt.o)
                              c:/siliconlabs/simplicitystudio/v4/developer/toolchains/gnu_arm/4.9_2015q3/bin/../lib/gcc/arm-none-eabi/4.9.3/../../../../arm-none-eabi/lib/armv7e-m/softfp\libm.a(lib_a-e_pow.o) (__ieee754_sqrt)
c:/siliconlabs/simplicitystudio/v4/developer/toolchains/gnu_arm/4.9_2015q3/bin/../lib/gcc/arm-none-eabi/4.9.3/../../../../arm-none-eabi/lib/armv7e-m/softfp\libm.a(lib_a-s_fabs.o)
                              c:/siliconlabs/simplicitystudio/v4/developer/toolchains/gnu_arm/4.9_2015q3/bin/../lib/gcc/arm-none-eabi/4.9.3/../../../../arm-none-eabi/lib/armv7e-m/softfp\libm.a(lib_a-e_pow.o) (fabs)
c:/siliconlabs/simplicitystudio/v4/developer/toolchains/gnu_arm/4.9_2015q3/bin/../lib/gcc/arm-none-eabi/4.9.3/../../../../arm-none-eabi/lib/armv7e-m/softfp\libm.a(lib_a-s_finite.o)
                              c:/siliconlabs/simplicitystudio/v4/developer/toolchains/gnu_arm/4.9_2015q3/bin/../lib/gcc/arm-none-eabi/4.9.3/../../../../arm-none-eabi/lib/armv7e-m/softfp\libm.a(lib_a-w_pow.o) (finite)
c:/siliconlabs/simplicitystudio/v4/developer/toolchains/gnu_arm/4.9_2015q3/bin/../lib/gcc/arm-none-eabi/4.9.3/../../../../arm-none-eabi/lib/armv7e-m/softfp\libm.a(lib_a-s_fpclassify.o)
                              c:/siliconlabs/simplicitystudio/v4/developer/toolchains/gnu_arm/4.9_2015q3/bin/../lib/gcc/arm-none-eabi/4.9.3/../../../../arm-none-eabi/lib/armv7e-m/softfp\libm.a(lib_a-w_pow.o) (__fpclassifyd)
c:/siliconlabs/simplicitystudio/v4/developer/toolchains/gnu_arm/4.9_2015q3/bin/../lib/gcc/arm-none-eabi/4.9.3/../../../../arm-none-eabi/lib/armv7e-m/softfp\libm.a(lib_a-s_lib_ver.o)
                              c:/siliconlabs/simplicitystudio/v4/developer/toolchains/gnu_arm/4.9_2015q3/bin/../lib/gcc/arm-none-eabi/4.9.3/../../../../arm-none-eabi/lib/armv7e-m/softfp\libm.a(lib_a-w_pow.o) (__fdlib_version)
c:/siliconlabs/simplicitystudio/v4/developer/toolchains/gnu_arm/4.9_2015q3/bin/../lib/gcc/arm-none-eabi/4.9.3/../../../../arm-none-eabi/lib/armv7e-m/softfp\libm.a(lib_a-s_matherr.o)
                              c:/siliconlabs/simplicitystudio/v4/developer/toolchains/gnu_arm/4.9_2015q3/bin/../lib/gcc/arm-none-eabi/4.9.3/../../../../arm-none-eabi/lib/armv7e-m/softfp\libm.a(lib_a-w_pow.o) (matherr)
c:/siliconlabs/simplicitystudio/v4/developer/toolchains/gnu_arm/4.9_2015q3/bin/../lib/gcc/arm-none-eabi/4.9.3/../../../../arm-none-eabi/lib/armv7e-m/softfp\libm.a(lib_a-s_nan.o)
                              c:/siliconlabs/simplicitystudio/v4/developer/toolchains/gnu_arm/4.9_2015q3/bin/../lib/gcc/arm-none-eabi/4.9.3/../../../../arm-none-eabi/lib/armv7e-m/softfp\libm.a(lib_a-e_pow.o) (nan)
c:/siliconlabs/simplicitystudio/v4/developer/toolchains/gnu_arm/4.9_2015q3/bin/../lib/gcc/arm-none-eabi/4.9.3/../../../../arm-none-eabi/lib/armv7e-m/softfp\libm.a(lib_a-s_rint.o)
                              c:/siliconlabs/simplicitystudio/v4/developer/toolchains/gnu_arm/4.9_2015q3/bin/../lib/gcc/arm-none-eabi/4.9.3/../../../../arm-none-eabi/lib/armv7e-m/softfp\libm.a(lib_a-w_pow.o) (rint)
c:/siliconlabs/simplicitystudio/v4/developer/toolchains/gnu_arm/4.9_2015q3/bin/../lib/gcc/arm-none-eabi/4.9.3/../../../../arm-none-eabi/lib/armv7e-m/softfp\libm.a(lib_a-s_scalbn.o)
                              c:/siliconlabs/simplicitystudio/v4/developer/toolchains/gnu_arm/4.9_2015q3/bin/../lib/gcc/arm-none-eabi/4.9.3/../../../../arm-none-eabi/lib/armv7e-m/softfp\libm.a(lib_a-e_pow.o) (scalbn)
c:/siliconlabs/simplicitystudio/v4/developer/toolchains/gnu_arm/4.9_2015q3/bin/../lib/gcc/arm-none-eabi/4.9.3/../../../../arm-none-eabi/lib/armv7e-m/softfp\libm.a(lib_a-s_copysign.o)
                              c:/siliconlabs/simplicitystudio/v4/developer/toolchains/gnu_arm/4.9_2015q3/bin/../lib/gcc/arm-none-eabi/4.9.3/../../../../arm-none-eabi/lib/armv7e-m/softfp\libm.a(lib_a-s_scalbn.o) (copysign)
c:/siliconlabs/simplicitystudio/v4/developer/toolchains/gnu_arm/4.9_2015q3/bin/../lib/gcc/arm-none-eabi/4.9.3/armv7e-m/softfp\libgcc.a(_arm_addsubdf3.o)
                              ./src/i2c.o (__aeabi_dsub)
c:/siliconlabs/simplicitystudio/v4/developer/toolchains/gnu_arm/4.9_2015q3/bin/../lib/gcc/arm-none-eabi/4.9.3/armv7e-m/softfp\libgcc.a(_arm_muldivdf3.o)
                              ./src/i2c.o (__aeabi_dmul)
c:/siliconlabs/simplicitystudio/v4/developer/toolchains/gnu_arm/4.9_2015q3/bin/../lib/gcc/arm-none-eabi/4.9.3/armv7e-m/softfp\libgcc.a(_arm_cmpdf2.o)
                              ./main.o (__aeabi_dcmpeq)
c:/siliconlabs/simplicitystudio/v4/developer/toolchains/gnu_arm/4.9_2015q3/bin/../lib/gcc/arm-none-eabi/4.9.3/armv7e-m/softfp\libgcc.a(_aeabi_ldivmod.o)
                              C:/SiliconLabs/SimplicityStudio/v4/developer/sdks/blemesh/v1.1//protocol/bluetooth_dev/lib/EFR32XG13X/GCC/\libbluetooth_mesh.a (__aeabi_ldivmod)
c:/siliconlabs/simplicitystudio/v4/developer/toolchains/gnu_arm/4.9_2015q3/bin/../lib/gcc/arm-none-eabi/4.9.3/armv7e-m/softfp\libgcc.a(_aeabi_uldivmod.o)
                              ./emlib/em_usart.o (__aeabi_uldivmod)
c:/siliconlabs/simplicitystudio/v4/developer/toolchains/gnu_arm/4.9_2015q3/bin/../lib/gcc/arm-none-eabi/4.9.3/armv7e-m/softfp\libgcc.a(bpabi.o)
                              c:/siliconlabs/simplicitystudio/v4/developer/toolchains/gnu_arm/4.9_2015q3/bin/../lib/gcc/arm-none-eabi/4.9.3/armv7e-m/softfp\libgcc.a(_aeabi_ldivmod.o) (__gnu_ldivmod_helper)
c:/siliconlabs/simplicitystudio/v4/developer/toolchains/gnu_arm/4.9_2015q3/bin/../lib/gcc/arm-none-eabi/4.9.3/armv7e-m/softfp\libgcc.a(_dvmd_tls.o)
                              c:/siliconlabs/simplicitystudio/v4/developer/toolchains/gnu_arm/4.9_2015q3/bin/../lib/gcc/arm-none-eabi/4.9.3/armv7e-m/softfp\libgcc.a(_aeabi_ldivmod.o) (__aeabi_ldiv0)
c:/siliconlabs/simplicitystudio/v4/developer/toolchains/gnu_arm/4.9_2015q3/bin/../lib/gcc/arm-none-eabi/4.9.3/armv7e-m/softfp\libgcc.a(_divdi3.o)
                              c:/siliconlabs/simplicitystudio/v4/developer/toolchains/gnu_arm/4.9_2015q3/bin/../lib/gcc/arm-none-eabi/4.9.3/armv7e-m/softfp\libgcc.a(bpabi.o) (__divdi3)
c:/siliconlabs/simplicitystudio/v4/developer/toolchains/gnu_arm/4.9_2015q3/bin/../lib/gcc/arm-none-eabi/4.9.3/armv7e-m/softfp\libgcc.a(_udivdi3.o)
                              c:/siliconlabs/simplicitystudio/v4/developer/toolchains/gnu_arm/4.9_2015q3/bin/../lib/gcc/arm-none-eabi/4.9.3/armv7e-m/softfp\libgcc.a(bpabi.o) (__udivdi3)
c:/siliconlabs/simplicitystudio/v4/developer/toolchains/gnu_arm/4.9_2015q3/bin/../lib/gcc/arm-none-eabi/4.9.3/../../../../arm-none-eabi/lib/armv7e-m/softfp\libc.a(lib_a-errno.o)
                              c:/siliconlabs/simplicitystudio/v4/developer/toolchains/gnu_arm/4.9_2015q3/bin/../lib/gcc/arm-none-eabi/4.9.3/../../../../arm-none-eabi/lib/armv7e-m/softfp\libm.a(lib_a-w_pow.o) (__errno)
c:/siliconlabs/simplicitystudio/v4/developer/toolchains/gnu_arm/4.9_2015q3/bin/../lib/gcc/arm-none-eabi/4.9.3/../../../../arm-none-eabi/lib/armv7e-m/softfp\libc.a(lib_a-exit.o)
                              c:/siliconlabs/simplicitystudio/v4/developer/toolchains/gnu_arm/4.9_2015q3/bin/../lib/gcc/arm-none-eabi/4.9.3/../../../../arm-none-eabi/lib/armv7e-m/softfp/crt0.o (exit)
c:/siliconlabs/simplicitystudio/v4/developer/toolchains/gnu_arm/4.9_2015q3/bin/../lib/gcc/arm-none-eabi/4.9.3/../../../../arm-none-eabi/lib/armv7e-m/softfp\libc.a(lib_a-impure.o)
                              c:/siliconlabs/simplicitystudio/v4/developer/toolchains/gnu_arm/4.9_2015q3/bin/../lib/gcc/arm-none-eabi/4.9.3/../../../../arm-none-eabi/lib/armv7e-m/softfp\libc.a(lib_a-exit.o) (_global_impure_ptr)
c:/siliconlabs/simplicitystudio/v4/developer/toolchains/gnu_arm/4.9_2015q3/bin/../lib/gcc/arm-none-eabi/4.9.3/../../../../arm-none-eabi/lib/armv7e-m/softfp\libc.a(lib_a-init.o)
                              c:/siliconlabs/simplicitystudio/v4/developer/toolchains/gnu_arm/4.9_2015q3/bin/../lib/gcc/arm-none-eabi/4.9.3/../../../../arm-none-eabi/lib/armv7e-m/softfp/crt0.o (__libc_init_array)
c:/siliconlabs/simplicitystudio/v4/developer/toolchains/gnu_arm/4.9_2015q3/bin/../lib/gcc/arm-none-eabi/4.9.3/../../../../arm-none-eabi/lib/armv7e-m/softfp\libc.a(lib_a-malloc.o)
                              ./main.o (malloc)
c:/siliconlabs/simplicitystudio/v4/developer/toolchains/gnu_arm/4.9_2015q3/bin/../lib/gcc/arm-none-eabi/4.9.3/../../../../arm-none-eabi/lib/armv7e-m/softfp\libc.a(lib_a-mallocr.o)
                              c:/siliconlabs/simplicitystudio/v4/developer/toolchains/gnu_arm/4.9_2015q3/bin/../lib/gcc/arm-none-eabi/4.9.3/../../../../arm-none-eabi/lib/armv7e-m/softfp\libc.a(lib_a-malloc.o) (_malloc_r)
c:/siliconlabs/simplicitystudio/v4/developer/toolchains/gnu_arm/4.9_2015q3/bin/../lib/gcc/arm-none-eabi/4.9.3/../../../../arm-none-eabi/lib/armv7e-m/softfp\libc.a(lib_a-memcmp.o)
                              C:/SiliconLabs/SimplicityStudio/v4/developer/sdks/blemesh/v1.1//protocol/bluetooth_dev/lib/EFR32XG13X/GCC/\libbluetooth_mesh.a (memcmp)
c:/siliconlabs/simplicitystudio/v4/developer/toolchains/gnu_arm/4.9_2015q3/bin/../lib/gcc/arm-none-eabi/4.9.3/../../../../arm-none-eabi/lib/armv7e-m/softfp\libc.a(lib_a-memcpy.o)
                              ./main.o (memcpy)
c:/siliconlabs/simplicitystudio/v4/developer/toolchains/gnu_arm/4.9_2015q3/bin/../lib/gcc/arm-none-eabi/4.9.3/../../../../arm-none-eabi/lib/armv7e-m/softfp\libc.a(lib_a-memmove.o)
                              C:/SiliconLabs/SimplicityStudio/v4/developer/sdks/blemesh/v1.1//protocol/bluetooth_dev/lib/EFR32XG13X/GCC/\libbluetooth_mesh.a (memmove)
c:/siliconlabs/simplicitystudio/v4/developer/toolchains/gnu_arm/4.9_2015q3/bin/../lib/gcc/arm-none-eabi/4.9.3/../../../../arm-none-eabi/lib/armv7e-m/softfp\libc.a(lib_a-memset.o)
                              c:/siliconlabs/simplicitystudio/v4/developer/toolchains/gnu_arm/4.9_2015q3/bin/../lib/gcc/arm-none-eabi/4.9.3/../../../../arm-none-eabi/lib/armv7e-m/softfp/crt0.o (memset)
c:/siliconlabs/simplicitystudio/v4/developer/toolchains/gnu_arm/4.9_2015q3/bin/../lib/gcc/arm-none-eabi/4.9.3/../../../../arm-none-eabi/lib/armv7e-m/softfp\libc.a(lib_a-mlock.o)
                              c:/siliconlabs/simplicitystudio/v4/developer/toolchains/gnu_arm/4.9_2015q3/bin/../lib/gcc/arm-none-eabi/4.9.3/../../../../arm-none-eabi/lib/armv7e-m/softfp\libc.a(lib_a-mallocr.o) (__malloc_lock)
c:/siliconlabs/simplicitystudio/v4/developer/toolchains/gnu_arm/4.9_2015q3/bin/../lib/gcc/arm-none-eabi/4.9.3/../../../../arm-none-eabi/lib/armv7e-m/softfp\libc.a(lib_a-printf.o)
                              ./main.o (printf)
c:/siliconlabs/simplicitystudio/v4/developer/toolchains/gnu_arm/4.9_2015q3/bin/../lib/gcc/arm-none-eabi/4.9.3/../../../../arm-none-eabi/lib/armv7e-m/softfp\libc.a(lib_a-sbrkr.o)
                              c:/siliconlabs/simplicitystudio/v4/developer/toolchains/gnu_arm/4.9_2015q3/bin/../lib/gcc/arm-none-eabi/4.9.3/../../../../arm-none-eabi/lib/armv7e-m/softfp\libc.a(lib_a-mallocr.o) (_sbrk_r)
c:/siliconlabs/simplicitystudio/v4/developer/toolchains/gnu_arm/4.9_2015q3/bin/../lib/gcc/arm-none-eabi/4.9.3/../../../../arm-none-eabi/lib/armv7e-m/softfp\libc.a(lib_a-setvbuf.o)
                              ./serial_vcom/retargetserial.o (setvbuf)
c:/siliconlabs/simplicitystudio/v4/developer/toolchains/gnu_arm/4.9_2015q3/bin/../lib/gcc/arm-none-eabi/4.9.3/../../../../arm-none-eabi/lib/armv7e-m/softfp\libc.a(lib_a-sprintf.o)
                              ./main.o (sprintf)
c:/siliconlabs/simplicitystudio/v4/developer/toolchains/gnu_arm/4.9_2015q3/bin/../lib/gcc/arm-none-eabi/4.9.3/../../../../arm-none-eabi/lib/armv7e-m/softfp\libc.a(lib_a-strcat.o)
                              ./main.o (strcat)
c:/siliconlabs/simplicitystudio/v4/developer/toolchains/gnu_arm/4.9_2015q3/bin/../lib/gcc/arm-none-eabi/4.9.3/../../../../arm-none-eabi/lib/armv7e-m/softfp\libc.a(lib_a-strcmp.o)
                              C:/SiliconLabs/SimplicityStudio/v4/developer/sdks/blemesh/v1.1//protocol/bluetooth_dev/lib/EFR32XG13X/GCC/\libbluetooth_mesh.a (strcmp)
c:/siliconlabs/simplicitystudio/v4/developer/toolchains/gnu_arm/4.9_2015q3/bin/../lib/gcc/arm-none-eabi/4.9.3/../../../../arm-none-eabi/lib/armv7e-m/softfp\libc.a(lib_a-strcpy.o)
                              c:/siliconlabs/simplicitystudio/v4/developer/toolchains/gnu_arm/4.9_2015q3/bin/../lib/gcc/arm-none-eabi/4.9.3/../../../../arm-none-eabi/lib/armv7e-m/softfp\libc.a(lib_a-strcat.o) (strcpy)
c:/siliconlabs/simplicitystudio/v4/developer/toolchains/gnu_arm/4.9_2015q3/bin/../lib/gcc/arm-none-eabi/4.9.3/../../../../arm-none-eabi/lib/armv7e-m/softfp\libc.a(lib_a-strlen.o)
                              ./main.o (strlen)
c:/siliconlabs/simplicitystudio/v4/developer/toolchains/gnu_arm/4.9_2015q3/bin/../lib/gcc/arm-none-eabi/4.9.3/../../../../arm-none-eabi/lib/armv7e-m/softfp\libc.a(lib_a-svfprintf.o)
                              c:/siliconlabs/simplicitystudio/v4/developer/toolchains/gnu_arm/4.9_2015q3/bin/../lib/gcc/arm-none-eabi/4.9.3/../../../../arm-none-eabi/lib/armv7e-m/softfp\libc.a(lib_a-sprintf.o) (_svfprintf_r)
c:/siliconlabs/simplicitystudio/v4/developer/toolchains/gnu_arm/4.9_2015q3/bin/../lib/gcc/arm-none-eabi/4.9.3/../../../../arm-none-eabi/lib/armv7e-m/softfp\libc.a(lib_a-vfprintf.o)
                              c:/siliconlabs/simplicitystudio/v4/developer/toolchains/gnu_arm/4.9_2015q3/bin/../lib/gcc/arm-none-eabi/4.9.3/../../../../arm-none-eabi/lib/armv7e-m/softfp\libc.a(lib_a-printf.o) (_vfprintf_r)
c:/siliconlabs/simplicitystudio/v4/developer/toolchains/gnu_arm/4.9_2015q3/bin/../lib/gcc/arm-none-eabi/4.9.3/../../../../arm-none-eabi/lib/armv7e-m/softfp\libc.a(lib_a-wsetup.o)
                              c:/siliconlabs/simplicitystudio/v4/developer/toolchains/gnu_arm/4.9_2015q3/bin/../lib/gcc/arm-none-eabi/4.9.3/../../../../arm-none-eabi/lib/armv7e-m/softfp\libc.a(lib_a-vfprintf.o) (__swsetup_r)
c:/siliconlabs/simplicitystudio/v4/developer/toolchains/gnu_arm/4.9_2015q3/bin/../lib/gcc/arm-none-eabi/4.9.3/../../../../arm-none-eabi/lib/armv7e-m/softfp\libc.a(lib_a-__call_atexit.o)
                              c:/siliconlabs/simplicitystudio/v4/developer/toolchains/gnu_arm/4.9_2015q3/bin/../lib/gcc/arm-none-eabi/4.9.3/../../../../arm-none-eabi/lib/armv7e-m/softfp\libc.a(lib_a-exit.o) (__call_exitprocs)
c:/siliconlabs/simplicitystudio/v4/developer/toolchains/gnu_arm/4.9_2015q3/bin/../lib/gcc/arm-none-eabi/4.9.3/../../../../arm-none-eabi/lib/armv7e-m/softfp\libc.a(lib_a-atexit.o)
                              c:/siliconlabs/simplicitystudio/v4/developer/toolchains/gnu_arm/4.9_2015q3/bin/../lib/gcc/arm-none-eabi/4.9.3/../../../../arm-none-eabi/lib/armv7e-m/softfp\libc.a(lib_a-__call_atexit.o) (atexit)
c:/siliconlabs/simplicitystudio/v4/developer/toolchains/gnu_arm/4.9_2015q3/bin/../lib/gcc/arm-none-eabi/4.9.3/../../../../arm-none-eabi/lib/armv7e-m/softfp\libc.a(lib_a-dtoa.o)
                              c:/siliconlabs/simplicitystudio/v4/developer/toolchains/gnu_arm/4.9_2015q3/bin/../lib/gcc/arm-none-eabi/4.9.3/../../../../arm-none-eabi/lib/armv7e-m/softfp\libc.a(lib_a-svfprintf.o) (_dtoa_r)
c:/siliconlabs/simplicitystudio/v4/developer/toolchains/gnu_arm/4.9_2015q3/bin/../lib/gcc/arm-none-eabi/4.9.3/../../../../arm-none-eabi/lib/armv7e-m/softfp\libc.a(lib_a-fflush.o)
                              c:/siliconlabs/simplicitystudio/v4/developer/toolchains/gnu_arm/4.9_2015q3/bin/../lib/gcc/arm-none-eabi/4.9.3/../../../../arm-none-eabi/lib/armv7e-m/softfp\libc.a(lib_a-setvbuf.o) (_fflush_r)
c:/siliconlabs/simplicitystudio/v4/developer/toolchains/gnu_arm/4.9_2015q3/bin/../lib/gcc/arm-none-eabi/4.9.3/../../../../arm-none-eabi/lib/armv7e-m/softfp\libc.a(lib_a-findfp.o)
                              c:/siliconlabs/simplicitystudio/v4/developer/toolchains/gnu_arm/4.9_2015q3/bin/../lib/gcc/arm-none-eabi/4.9.3/../../../../arm-none-eabi/lib/armv7e-m/softfp\libc.a(lib_a-setvbuf.o) (_cleanup_r)
c:/siliconlabs/simplicitystudio/v4/developer/toolchains/gnu_arm/4.9_2015q3/bin/../lib/gcc/arm-none-eabi/4.9.3/../../../../arm-none-eabi/lib/armv7e-m/softfp\libc.a(lib_a-fini.o)
                              c:/siliconlabs/simplicitystudio/v4/developer/toolchains/gnu_arm/4.9_2015q3/bin/../lib/gcc/arm-none-eabi/4.9.3/../../../../arm-none-eabi/lib/armv7e-m/softfp\libc.a(lib_a-__call_atexit.o) (__libc_fini_array)
c:/siliconlabs/simplicitystudio/v4/developer/toolchains/gnu_arm/4.9_2015q3/bin/../lib/gcc/arm-none-eabi/4.9.3/../../../../arm-none-eabi/lib/armv7e-m/softfp\libc.a(lib_a-freer.o)
                              c:/siliconlabs/simplicitystudio/v4/developer/toolchains/gnu_arm/4.9_2015q3/bin/../lib/gcc/arm-none-eabi/4.9.3/../../../../arm-none-eabi/lib/armv7e-m/softfp\libc.a(lib_a-malloc.o) (_free_r)
c:/siliconlabs/simplicitystudio/v4/developer/toolchains/gnu_arm/4.9_2015q3/bin/../lib/gcc/arm-none-eabi/4.9.3/../../../../arm-none-eabi/lib/armv7e-m/softfp\libc.a(lib_a-fwalk.o)
                              c:/siliconlabs/simplicitystudio/v4/developer/toolchains/gnu_arm/4.9_2015q3/bin/../lib/gcc/arm-none-eabi/4.9.3/../../../../arm-none-eabi/lib/armv7e-m/softfp\libc.a(lib_a-findfp.o) (_fwalk)
c:/siliconlabs/simplicitystudio/v4/developer/toolchains/gnu_arm/4.9_2015q3/bin/../lib/gcc/arm-none-eabi/4.9.3/../../../../arm-none-eabi/lib/armv7e-m/softfp\libc.a(lib_a-locale.o)
                              c:/siliconlabs/simplicitystudio/v4/developer/toolchains/gnu_arm/4.9_2015q3/bin/../lib/gcc/arm-none-eabi/4.9.3/../../../../arm-none-eabi/lib/armv7e-m/softfp\libc.a(lib_a-svfprintf.o) (_localeconv_r)
c:/siliconlabs/simplicitystudio/v4/developer/toolchains/gnu_arm/4.9_2015q3/bin/../lib/gcc/arm-none-eabi/4.9.3/../../../../arm-none-eabi/lib/armv7e-m/softfp\libc.a(lib_a-makebuf.o)
                              c:/siliconlabs/simplicitystudio/v4/developer/toolchains/gnu_arm/4.9_2015q3/bin/../lib/gcc/arm-none-eabi/4.9.3/../../../../arm-none-eabi/lib/armv7e-m/softfp\libc.a(lib_a-wsetup.o) (__smakebuf_r)
c:/siliconlabs/simplicitystudio/v4/developer/toolchains/gnu_arm/4.9_2015q3/bin/../lib/gcc/arm-none-eabi/4.9.3/../../../../arm-none-eabi/lib/armv7e-m/softfp\libc.a(lib_a-memchr.o)
                              c:/siliconlabs/simplicitystudio/v4/developer/toolchains/gnu_arm/4.9_2015q3/bin/../lib/gcc/arm-none-eabi/4.9.3/../../../../arm-none-eabi/lib/armv7e-m/softfp\libc.a(lib_a-svfprintf.o) (memchr)
c:/siliconlabs/simplicitystudio/v4/developer/toolchains/gnu_arm/4.9_2015q3/bin/../lib/gcc/arm-none-eabi/4.9.3/../../../../arm-none-eabi/lib/armv7e-m/softfp\libc.a(lib_a-mprec.o)
                              c:/siliconlabs/simplicitystudio/v4/developer/toolchains/gnu_arm/4.9_2015q3/bin/../lib/gcc/arm-none-eabi/4.9.3/../../../../arm-none-eabi/lib/armv7e-m/softfp\libc.a(lib_a-dtoa.o) (_Balloc)
c:/siliconlabs/simplicitystudio/v4/developer/toolchains/gnu_arm/4.9_2015q3/bin/../lib/gcc/arm-none-eabi/4.9.3/../../../../arm-none-eabi/lib/armv7e-m/softfp\libc.a(lib_a-reent.o)
                              c:/siliconlabs/simplicitystudio/v4/developer/toolchains/gnu_arm/4.9_2015q3/bin/../lib/gcc/arm-none-eabi/4.9.3/../../../../arm-none-eabi/lib/armv7e-m/softfp\libc.a(lib_a-sbrkr.o) (errno)
c:/siliconlabs/simplicitystudio/v4/developer/toolchains/gnu_arm/4.9_2015q3/bin/../lib/gcc/arm-none-eabi/4.9.3/../../../../arm-none-eabi/lib/armv7e-m/softfp\libc.a(lib_a-stdio.o)
                              c:/siliconlabs/simplicitystudio/v4/developer/toolchains/gnu_arm/4.9_2015q3/bin/../lib/gcc/arm-none-eabi/4.9.3/../../../../arm-none-eabi/lib/armv7e-m/softfp\libc.a(lib_a-findfp.o) (__sread)
c:/siliconlabs/simplicitystudio/v4/developer/toolchains/gnu_arm/4.9_2015q3/bin/../lib/gcc/arm-none-eabi/4.9.3/../../../../arm-none-eabi/lib/armv7e-m/softfp\libc.a(lib_a-svfiprintf.o)
                              c:/siliconlabs/simplicitystudio/v4/developer/toolchains/gnu_arm/4.9_2015q3/bin/../lib/gcc/arm-none-eabi/4.9.3/../../../../arm-none-eabi/lib/armv7e-m/softfp\libc.a(lib_a-svfprintf.o) (__ssprint_r)
c:/siliconlabs/simplicitystudio/v4/developer/toolchains/gnu_arm/4.9_2015q3/bin/../lib/gcc/arm-none-eabi/4.9.3/../../../../arm-none-eabi/lib/armv7e-m/softfp\libc.a(lib_a-vfiprintf.o)
                              c:/siliconlabs/simplicitystudio/v4/developer/toolchains/gnu_arm/4.9_2015q3/bin/../lib/gcc/arm-none-eabi/4.9.3/../../../../arm-none-eabi/lib/armv7e-m/softfp\libc.a(lib_a-vfprintf.o) (__sprint_r)
c:/siliconlabs/simplicitystudio/v4/developer/toolchains/gnu_arm/4.9_2015q3/bin/../lib/gcc/arm-none-eabi/4.9.3/../../../../arm-none-eabi/lib/armv7e-m/softfp\libc.a(lib_a-writer.o)
                              c:/siliconlabs/simplicitystudio/v4/developer/toolchains/gnu_arm/4.9_2015q3/bin/../lib/gcc/arm-none-eabi/4.9.3/../../../../arm-none-eabi/lib/armv7e-m/softfp\libc.a(lib_a-stdio.o) (_write_r)
c:/siliconlabs/simplicitystudio/v4/developer/toolchains/gnu_arm/4.9_2015q3/bin/../lib/gcc/arm-none-eabi/4.9.3/../../../../arm-none-eabi/lib/armv7e-m/softfp\libc.a(lib_a-__atexit.o)
                              c:/siliconlabs/simplicitystudio/v4/developer/toolchains/gnu_arm/4.9_2015q3/bin/../lib/gcc/arm-none-eabi/4.9.3/../../../../arm-none-eabi/lib/armv7e-m/softfp\libc.a(lib_a-atexit.o) (__register_exitproc)
c:/siliconlabs/simplicitystudio/v4/developer/toolchains/gnu_arm/4.9_2015q3/bin/../lib/gcc/arm-none-eabi/4.9.3/../../../../arm-none-eabi/lib/armv7e-m/softfp\libc.a(lib_a-callocr.o)
                              c:/siliconlabs/simplicitystudio/v4/developer/toolchains/gnu_arm/4.9_2015q3/bin/../lib/gcc/arm-none-eabi/4.9.3/../../../../arm-none-eabi/lib/armv7e-m/softfp\libc.a(lib_a-mprec.o) (_calloc_r)
c:/siliconlabs/simplicitystudio/v4/developer/toolchains/gnu_arm/4.9_2015q3/bin/../lib/gcc/arm-none-eabi/4.9.3/../../../../arm-none-eabi/lib/armv7e-m/softfp\libc.a(lib_a-closer.o)
                              c:/siliconlabs/simplicitystudio/v4/developer/toolchains/gnu_arm/4.9_2015q3/bin/../lib/gcc/arm-none-eabi/4.9.3/../../../../arm-none-eabi/lib/armv7e-m/softfp\libc.a(lib_a-stdio.o) (_close_r)
c:/siliconlabs/simplicitystudio/v4/developer/toolchains/gnu_arm/4.9_2015q3/bin/../lib/gcc/arm-none-eabi/4.9.3/../../../../arm-none-eabi/lib/armv7e-m/softfp\libc.a(lib_a-fclose.o)
                              c:/siliconlabs/simplicitystudio/v4/developer/toolchains/gnu_arm/4.9_2015q3/bin/../lib/gcc/arm-none-eabi/4.9.3/../../../../arm-none-eabi/lib/armv7e-m/softfp\libc.a(lib_a-findfp.o) (_fclose_r)
c:/siliconlabs/simplicitystudio/v4/developer/toolchains/gnu_arm/4.9_2015q3/bin/../lib/gcc/arm-none-eabi/4.9.3/../../../../arm-none-eabi/lib/armv7e-m/softfp\libc.a(lib_a-fputwc.o)
                              c:/siliconlabs/simplicitystudio/v4/developer/toolchains/gnu_arm/4.9_2015q3/bin/../lib/gcc/arm-none-eabi/4.9.3/../../../../arm-none-eabi/lib/armv7e-m/softfp\libc.a(lib_a-vfiprintf.o) (_fputwc_r)
c:/siliconlabs/simplicitystudio/v4/developer/toolchains/gnu_arm/4.9_2015q3/bin/../lib/gcc/arm-none-eabi/4.9.3/../../../../arm-none-eabi/lib/armv7e-m/softfp\libc.a(lib_a-fstatr.o)
                              c:/siliconlabs/simplicitystudio/v4/developer/toolchains/gnu_arm/4.9_2015q3/bin/../lib/gcc/arm-none-eabi/4.9.3/../../../../arm-none-eabi/lib/armv7e-m/softfp\libc.a(lib_a-makebuf.o) (_fstat_r)
c:/siliconlabs/simplicitystudio/v4/developer/toolchains/gnu_arm/4.9_2015q3/bin/../lib/gcc/arm-none-eabi/4.9.3/../../../../arm-none-eabi/lib/armv7e-m/softfp\libc.a(lib_a-fvwrite.o)
                              c:/siliconlabs/simplicitystudio/v4/developer/toolchains/gnu_arm/4.9_2015q3/bin/../lib/gcc/arm-none-eabi/4.9.3/../../../../arm-none-eabi/lib/armv7e-m/softfp\libc.a(lib_a-vfiprintf.o) (__sfvwrite_r)
c:/siliconlabs/simplicitystudio/v4/developer/toolchains/gnu_arm/4.9_2015q3/bin/../lib/gcc/arm-none-eabi/4.9.3/../../../../arm-none-eabi/lib/armv7e-m/softfp\libc.a(lib_a-isattyr.o)
                              c:/siliconlabs/simplicitystudio/v4/developer/toolchains/gnu_arm/4.9_2015q3/bin/../lib/gcc/arm-none-eabi/4.9.3/../../../../arm-none-eabi/lib/armv7e-m/softfp\libc.a(lib_a-makebuf.o) (_isatty_r)
c:/siliconlabs/simplicitystudio/v4/developer/toolchains/gnu_arm/4.9_2015q3/bin/../lib/gcc/arm-none-eabi/4.9.3/../../../../arm-none-eabi/lib/armv7e-m/softfp\libc.a(lib_a-lseekr.o)
                              c:/siliconlabs/simplicitystudio/v4/developer/toolchains/gnu_arm/4.9_2015q3/bin/../lib/gcc/arm-none-eabi/4.9.3/../../../../arm-none-eabi/lib/armv7e-m/softfp\libc.a(lib_a-stdio.o) (_lseek_r)
c:/siliconlabs/simplicitystudio/v4/developer/toolchains/gnu_arm/4.9_2015q3/bin/../lib/gcc/arm-none-eabi/4.9.3/../../../../arm-none-eabi/lib/armv7e-m/softfp\libc.a(lib_a-readr.o)
                              c:/siliconlabs/simplicitystudio/v4/developer/toolchains/gnu_arm/4.9_2015q3/bin/../lib/gcc/arm-none-eabi/4.9.3/../../../../arm-none-eabi/lib/armv7e-m/softfp\libc.a(lib_a-stdio.o) (_read_r)
c:/siliconlabs/simplicitystudio/v4/developer/toolchains/gnu_arm/4.9_2015q3/bin/../lib/gcc/arm-none-eabi/4.9.3/../../../../arm-none-eabi/lib/armv7e-m/softfp\libc.a(lib_a-reallocr.o)
                              c:/siliconlabs/simplicitystudio/v4/developer/toolchains/gnu_arm/4.9_2015q3/bin/../lib/gcc/arm-none-eabi/4.9.3/../../../../arm-none-eabi/lib/armv7e-m/softfp\libc.a(lib_a-svfiprintf.o) (_realloc_r)
c:/siliconlabs/simplicitystudio/v4/developer/toolchains/gnu_arm/4.9_2015q3/bin/../lib/gcc/arm-none-eabi/4.9.3/../../../../arm-none-eabi/lib/armv7e-m/softfp\libc.a(lib_a-wbuf.o)
                              c:/siliconlabs/simplicitystudio/v4/developer/toolchains/gnu_arm/4.9_2015q3/bin/../lib/gcc/arm-none-eabi/4.9.3/../../../../arm-none-eabi/lib/armv7e-m/softfp\libc.a(lib_a-fputwc.o) (__swbuf_r)
c:/siliconlabs/simplicitystudio/v4/developer/toolchains/gnu_arm/4.9_2015q3/bin/../lib/gcc/arm-none-eabi/4.9.3/../../../../arm-none-eabi/lib/armv7e-m/softfp\libc.a(lib_a-wcrtomb.o)
                              c:/siliconlabs/simplicitystudio/v4/developer/toolchains/gnu_arm/4.9_2015q3/bin/../lib/gcc/arm-none-eabi/4.9.3/../../../../arm-none-eabi/lib/armv7e-m/softfp\libc.a(lib_a-fputwc.o) (_wcrtomb_r)
c:/siliconlabs/simplicitystudio/v4/developer/toolchains/gnu_arm/4.9_2015q3/bin/../lib/gcc/arm-none-eabi/4.9.3/../../../../arm-none-eabi/lib/armv7e-m/softfp\libc.a(lib_a-wctomb_r.o)
                              c:/siliconlabs/simplicitystudio/v4/developer/toolchains/gnu_arm/4.9_2015q3/bin/../lib/gcc/arm-none-eabi/4.9.3/../../../../arm-none-eabi/lib/armv7e-m/softfp\libc.a(lib_a-wcrtomb.o) (__wctomb)
c:/siliconlabs/simplicitystudio/v4/developer/toolchains/gnu_arm/4.9_2015q3/bin/../lib/gcc/arm-none-eabi/4.9.3/armv7e-m/softfp\libgcc.a(_arm_fixdfsi.o)
                              c:/siliconlabs/simplicitystudio/v4/developer/toolchains/gnu_arm/4.9_2015q3/bin/../lib/gcc/arm-none-eabi/4.9.3/../../../../arm-none-eabi/lib/armv7e-m/softfp\libc.a(lib_a-dtoa.o) (__aeabi_d2iz)

Allocating common symbols
Common symbol       size              file

txPower24LpCurves   0x4               C:/SiliconLabs/SimplicityStudio/v4/developer/sdks/blemesh/v1.1//protocol/bluetooth_dev/lib/EFR32XG13X/GCC/\libbluetooth_mesh.a
user_signals        0x1               C:/SiliconLabs/SimplicityStudio/v4/developer/sdks/blemesh/v1.1//protocol/bluetooth_dev/lib/EFR32XG13X/GCC/\libbluetooth_mesh.a
mbedtls_cipher_supported
                    0x28              C:/SiliconLabs/SimplicityStudio/v4/developer/sdks/blemesh/v1.1//protocol/bluetooth_dev/lib/EFR32XG13X/GCC/\libbluetooth_mesh.a
bg_gap              0x2c              C:/SiliconLabs/SimplicityStudio/v4/developer/sdks/blemesh/v1.1//protocol/bluetooth_dev/lib/EFR32XG13X/GCC/\libbluetooth_mesh.a
errno               0x4               c:/siliconlabs/simplicitystudio/v4/developer/toolchains/gnu_arm/4.9_2015q3/bin/../lib/gcc/arm-none-eabi/4.9.3/../../../../arm-none-eabi/lib/armv7e-m/softfp\libc.a(lib_a-reent.o)
ll_events           0x4               C:/SiliconLabs/SimplicityStudio/v4/developer/sdks/blemesh/v1.1//protocol/bluetooth_dev/lib/EFR32XG13X/GCC/\libbluetooth_mesh.a
msg_sender          0x4               C:/SiliconLabs/SimplicityStudio/v4/developer/sdks/blemesh/v1.1//protocol/bluetooth_dev/lib/EFR32XG13X/GCC/\libbluetooth_mesh.a
ll_hci              0x4               C:/SiliconLabs/SimplicityStudio/v4/developer/sdks/blemesh/v1.1//protocol/bluetooth_dev/lib/EFR32XG13X/GCC/\libbluetooth_mesh.a
dirtyRows           0x10              ./glib/BRD4104A/dmd_display.o
deferred_event_sender
                    0x4               C:/SiliconLabs/SimplicityStudio/v4/developer/sdks/blemesh/v1.1//protocol/bluetooth_dev/lib/EFR32XG13X/GCC/\libbluetooth_mesh.a
txPower24HpCurves   0x4               C:/SiliconLabs/SimplicityStudio/v4/developer/sdks/blemesh/v1.1//protocol/bluetooth_dev/lib/EFR32XG13X/GCC/\libbluetooth_mesh.a
btlePublicDevAddr   0x6               C:/SiliconLabs/SimplicityStudio/v4/developer/sdks/blemesh/v1.1//protocol/bluetooth_dev/lib/EFR32XG13X/GCC/\libbluetooth_mesh.a
bmpHeader           0x36              ./glib/BRD4104A/bmp.o
ll_channelmap       0x25              C:/SiliconLabs/SimplicityStudio/v4/developer/sdks/blemesh/v1.1//protocol/bluetooth_dev/lib/EFR32XG13X/GCC/\libbluetooth_mesh.a
db_store            0x8               C:/SiliconLabs/SimplicityStudio/v4/developer/sdks/blemesh/v1.1//protocol/bluetooth_dev/lib/EFR32XG13X/GCC/\libbluetooth_mesh.a
bg_pool_pools       0xe0              C:/SiliconLabs/SimplicityStudio/v4/developer/sdks/blemesh/v1.1//protocol/bluetooth_dev/lib/EFR32XG13X/GCC/\libbluetooth_mesh.a
bmpPalette          0x8               ./glib/BRD4104A/bmp.o
ubt_callback        0x4               C:/SiliconLabs/SimplicityStudio/v4/developer/sdks/blemesh/v1.1//protocol/bluetooth_dev/lib/EFR32XG13X/GCC/\libbluetooth_mesh.a
ll_radioHandle      0x4               C:/SiliconLabs/SimplicityStudio/v4/developer/sdks/blemesh/v1.1//protocol/bluetooth_dev/lib/EFR32XG13X/GCC/\libbluetooth_mesh.a
ll_adv_state        0x8               C:/SiliconLabs/SimplicityStudio/v4/developer/sdks/blemesh/v1.1//protocol/bluetooth_dev/lib/EFR32XG13X/GCC/\libbluetooth_mesh.a
PROTIMER_scheduledRxEnable
                    0x8               C:/SiliconLabs/SimplicityStudio/v4/developer/sdks/blemesh/v1.1//protocol/bluetooth_dev/lib/EFR32XG13X/GCC/\libbluetooth_mesh.a
convDecodeBuffer    0x40              C:/SiliconLabs/SimplicityStudio/v4/developer/sdks/blemesh/v1.1//protocol/bluetooth_dev/lib/EFR32XG13X/GCC/\libbluetooth_mesh.a
ll_radio            0x28              C:/SiliconLabs/SimplicityStudio/v4/developer/sdks/blemesh/v1.1//protocol/bluetooth_dev/lib/EFR32XG13X/GCC/\libbluetooth_mesh.a
prov_caps           0x1               C:/SiliconLabs/SimplicityStudio/v4/developer/sdks/blemesh/v1.1//protocol/bluetooth_dev/lib/EFR32XG13X/GCC/\libbluetooth_mesh.a
ll                  0x20              C:/SiliconLabs/SimplicityStudio/v4/developer/sdks/blemesh/v1.1//protocol/bluetooth_dev/lib/EFR32XG13X/GCC/\libbluetooth_mesh.a
used_acls           0x4               C:/SiliconLabs/SimplicityStudio/v4/developer/sdks/blemesh/v1.1//protocol/bluetooth_dev/lib/EFR32XG13X/GCC/\libbluetooth_mesh.a
gecko_apihandler_rsp
                    0x30              C:/SiliconLabs/SimplicityStudio/v4/developer/sdks/blemesh/v1.1//protocol/bluetooth_dev/lib/EFR32XG13X/GCC/\libbluetooth_mesh.a
PROTIMER_softwareTimerTimeout
                    0x8               C:/SiliconLabs/SimplicityStudio/v4/developer/sdks/blemesh/v1.1//protocol/bluetooth_dev/lib/EFR32XG13X/GCC/\libbluetooth_mesh.a
current             0x10              ./main.o
test_lib_handler    0x4               C:/SiliconLabs/SimplicityStudio/v4/developer/sdks/blemesh/v1.1//protocol/bluetooth_dev/lib/EFR32XG13X/GCC/\libbluetooth_mesh.a
bg_store_sender     0x4               C:/SiliconLabs/SimplicityStudio/v4/developer/sdks/blemesh/v1.1//protocol/bluetooth_dev/lib/EFR32XG13X/GCC/\libbluetooth_mesh.a
ll_dtm              0x34              C:/SiliconLabs/SimplicityStudio/v4/developer/sdks/blemesh/v1.1//protocol/bluetooth_dev/lib/EFR32XG13X/GCC/\libbluetooth_mesh.a
BUFC_RxBuffer       0x200             C:/SiliconLabs/SimplicityStudio/v4/developer/sdks/blemesh/v1.1//protocol/bluetooth_dev/lib/EFR32XG13X/GCC/\libbluetooth_mesh.a
mesh_sender         0x4               C:/SiliconLabs/SimplicityStudio/v4/developer/sdks/blemesh/v1.1//protocol/bluetooth_dev/lib/EFR32XG13X/GCC/\libbluetooth_mesh.a
rcIrCalData         0x12              C:/SiliconLabs/SimplicityStudio/v4/developer/sdks/blemesh/v1.1//protocol/bluetooth_dev/lib/EFR32XG13X/GCC/\libbluetooth_mesh.a
PROTIMER_scheduledOverflows
                    0x5               C:/SiliconLabs/SimplicityStudio/v4/developer/sdks/blemesh/v1.1//protocol/bluetooth_dev/lib/EFR32XG13X/GCC/\libbluetooth_mesh.a
txPowerSgCurves     0x4               C:/SiliconLabs/SimplicityStudio/v4/developer/sdks/blemesh/v1.1//protocol/bluetooth_dev/lib/EFR32XG13X/GCC/\libbluetooth_mesh.a
ll_to_hci_data_event_sender
                    0x1               C:/SiliconLabs/SimplicityStudio/v4/developer/sdks/blemesh/v1.1//protocol/bluetooth_dev/lib/EFR32XG13X/GCC/\libbluetooth_mesh.a
usch                0x10              C:/SiliconLabs/SimplicityStudio/v4/developer/sdks/blemesh/v1.1//protocol/bluetooth_dev/lib/EFR32XG13X/GCC/\libbluetooth_mesh.a
current_bg_gattdb   0x4               C:/SiliconLabs/SimplicityStudio/v4/developer/sdks/blemesh/v1.1//protocol/bluetooth_dev/lib/EFR32XG13X/GCC/\libbluetooth_mesh.a
bg_event_handlers   0x28              C:/SiliconLabs/SimplicityStudio/v4/developer/sdks/blemesh/v1.1//protocol/bluetooth_dev/lib/EFR32XG13X/GCC/\libbluetooth_mesh.a
node_handle         0x1               C:/SiliconLabs/SimplicityStudio/v4/developer/sdks/blemesh/v1.1//protocol/bluetooth_dev/lib/EFR32XG13X/GCC/\libbluetooth_mesh.a
ll_scan             0x54              C:/SiliconLabs/SimplicityStudio/v4/developer/sdks/blemesh/v1.1//protocol/bluetooth_dev/lib/EFR32XG13X/GCC/\libbluetooth_mesh.a
hci_status          0x28              C:/SiliconLabs/SimplicityStudio/v4/developer/sdks/blemesh/v1.1//protocol/bluetooth_dev/lib/EFR32XG13X/GCC/\libbluetooth_mesh.a
address_resolver    0x8               C:/SiliconLabs/SimplicityStudio/v4/developer/sdks/blemesh/v1.1//protocol/bluetooth_dev/lib/EFR32XG13X/GCC/\libbluetooth_mesh.a
smp                 0x134             C:/SiliconLabs/SimplicityStudio/v4/developer/sdks/blemesh/v1.1//protocol/bluetooth_dev/lib/EFR32XG13X/GCC/\libbluetooth_mesh.a
piecewiseSegments   0x1               C:/SiliconLabs/SimplicityStudio/v4/developer/sdks/blemesh/v1.1//protocol/bluetooth_dev/lib/EFR32XG13X/GCC/\libbluetooth_mesh.a
fpReadData          0x4               ./glib/BRD4104A/bmp.o
rleInfo             0xc               ./glib/BRD4104A/bmp.o
timer_overflow      0x4               C:/SiliconLabs/SimplicityStudio/v4/developer/sdks/blemesh/v1.1//protocol/bluetooth_dev/lib/EFR32XG13X/GCC/\libbluetooth_mesh.a
ll_task_callback    0x4               C:/SiliconLabs/SimplicityStudio/v4/developer/sdks/blemesh/v1.1//protocol/bluetooth_dev/lib/EFR32XG13X/GCC/\libbluetooth_mesh.a
bluetooth_stack_heap
                    0x3570            ./main.o
target              0x10              ./main.o

Discarded input sections

 .text          0x00000000        0x0 c:/siliconlabs/simplicitystudio/v4/developer/toolchains/gnu_arm/4.9_2015q3/bin/../lib/gcc/arm-none-eabi/4.9.3/armv7e-m/softfp/crti.o
 .data          0x00000000        0x0 c:/siliconlabs/simplicitystudio/v4/developer/toolchains/gnu_arm/4.9_2015q3/bin/../lib/gcc/arm-none-eabi/4.9.3/armv7e-m/softfp/crti.o
 .bss           0x00000000        0x0 c:/siliconlabs/simplicitystudio/v4/developer/toolchains/gnu_arm/4.9_2015q3/bin/../lib/gcc/arm-none-eabi/4.9.3/armv7e-m/softfp/crti.o
 .data          0x00000000        0x4 c:/siliconlabs/simplicitystudio/v4/developer/toolchains/gnu_arm/4.9_2015q3/bin/../lib/gcc/arm-none-eabi/4.9.3/armv7e-m/softfp/crtbegin.o
 .data          0x00000000        0x0 c:/siliconlabs/simplicitystudio/v4/developer/toolchains/gnu_arm/4.9_2015q3/bin/../lib/gcc/arm-none-eabi/4.9.3/../../../../arm-none-eabi/lib/armv7e-m/softfp/crt0.o
 .bss           0x00000000        0x0 c:/siliconlabs/simplicitystudio/v4/developer/toolchains/gnu_arm/4.9_2015q3/bin/../lib/gcc/arm-none-eabi/4.9.3/../../../../arm-none-eabi/lib/armv7e-m/softfp/crt0.o
 .ARM.extab     0x00000000        0x0 c:/siliconlabs/simplicitystudio/v4/developer/toolchains/gnu_arm/4.9_2015q3/bin/../lib/gcc/arm-none-eabi/4.9.3/../../../../arm-none-eabi/lib/armv7e-m/softfp/crt0.o
 .text          0x00000000        0x0 ./dcd_switch.o
 .data          0x00000000        0x0 ./dcd_switch.o
 .bss           0x00000000        0x0 ./dcd_switch.o
 .text          0x00000000        0x0 ./gatt_db.o
 .data          0x00000000        0x0 ./gatt_db.o
 .bss           0x00000000        0x0 ./gatt_db.o
 .text          0x00000000        0x0 ./graphics.o
 .data          0x00000000        0x0 ./graphics.o
 .bss           0x00000000        0x0 ./graphics.o
 .text          0x00000000        0x0 ./main.o
 .data          0x00000000        0x0 ./main.o
 .bss           0x00000000        0x0 ./main.o
 .text.switch_node_init
                0x00000000       0x14 ./main.o
 .text.LCD_write
                0x00000000        0xc ./main.o
 .text          0x00000000        0x0 ./pti.o
 .data          0x00000000        0x0 ./pti.o
 .bss           0x00000000        0x0 ./pti.o
 .text          0x00000000        0x0 ./device/EFR32_B_1_3_P/gcc/startup_efr32bg13p.o
 .data          0x00000000        0x0 ./device/EFR32_B_1_3_P/gcc/startup_efr32bg13p.o
 .bss           0x00000000        0x0 ./device/EFR32_B_1_3_P/gcc/startup_efr32bg13p.o
 .text          0x00000000        0x0 ./device/EFR32_B_1_3_P/system_efr32bg13p.o
 .data          0x00000000        0x0 ./device/EFR32_B_1_3_P/system_efr32bg13p.o
 .bss           0x00000000        0x0 ./device/EFR32_B_1_3_P/system_efr32bg13p.o
 .text          0x00000000        0x0 ./emdrv/dmadrv.o
 .data          0x00000000        0x0 ./emdrv/dmadrv.o
 .bss           0x00000000        0x0 ./emdrv/dmadrv.o
 .text.StartTransfer
                0x00000000      0x1c8 ./emdrv/dmadrv.o
 .text.DMADRV_AllocateChannel
                0x00000000       0x5c ./emdrv/dmadrv.o
 .text.DMADRV_DeInit
                0x00000000       0x40 ./emdrv/dmadrv.o
 .text.DMADRV_FreeChannel
                0x00000000       0x50 ./emdrv/dmadrv.o
 .text.DMADRV_Init
                0x00000000       0x60 ./emdrv/dmadrv.o
 .text.DMADRV_MemoryPeripheral
                0x00000000       0x34 ./emdrv/dmadrv.o
 .text.DMADRV_MemoryPeripheralPingPong
                0x00000000       0x34 ./emdrv/dmadrv.o
 .text.DMADRV_PeripheralMemory
                0x00000000       0x34 ./emdrv/dmadrv.o
 .text.DMADRV_PeripheralMemoryPingPong
                0x00000000       0x38 ./emdrv/dmadrv.o
 .text.DMADRV_PauseTransfer
                0x00000000       0x40 ./emdrv/dmadrv.o
 .text.DMADRV_ResumeTransfer
                0x00000000       0x40 ./emdrv/dmadrv.o
 .text.DMADRV_StopTransfer
                0x00000000       0x40 ./emdrv/dmadrv.o
 .text.DMADRV_TransferActive
                0x00000000       0x5c ./emdrv/dmadrv.o
 .text.DMADRV_TransferCompletePending
                0x00000000       0x5c ./emdrv/dmadrv.o
 .text.DMADRV_TransferDone
                0x00000000       0x4c ./emdrv/dmadrv.o
 .text.DMADRV_TransferRemainingCount
                0x00000000       0x4c ./emdrv/dmadrv.o
 .rodata        0x00000000        0x4 ./emdrv/dmadrv.o
 .rodata.p2m    0x00000000       0x10 ./emdrv/dmadrv.o
 .bss.initialized
                0x00000000        0x1 ./emdrv/dmadrv.o
 .rodata.m2p    0x00000000       0x10 ./emdrv/dmadrv.o
 .rodata.xferCfg
                0x00000000       0x10 ./emdrv/dmadrv.o
 .text          0x00000000        0x0 ./emdrv/gpiointerrupt.o
 .data          0x00000000        0x0 ./emdrv/gpiointerrupt.o
 .bss           0x00000000        0x0 ./emdrv/gpiointerrupt.o
 .text          0x00000000        0x0 ./emdrv/sleep.o
 .data          0x00000000        0x0 ./emdrv/sleep.o
 .bss           0x00000000        0x0 ./emdrv/sleep.o
 .text.SLEEP_InitEx
                0x00000000       0x20 ./emdrv/sleep.o
 .text.SLEEP_ForceSleepInEM4
                0x00000000       0x10 ./emdrv/sleep.o
 .text          0x00000000        0x0 ./emdrv/tempdrv.o
 .data          0x00000000        0x0 ./emdrv/tempdrv.o
 .bss           0x00000000        0x0 ./emdrv/tempdrv.o
 .text.TEMPDRV_DeInit
                0x00000000       0x50 ./emdrv/tempdrv.o
 .text.TEMPDRV_Enable
                0x00000000       0x34 ./emdrv/tempdrv.o
 .text.TEMPDRV_GetActiveCallbacks
                0x00000000       0x30 ./emdrv/tempdrv.o
 .text.TEMPDRV_GetTemp
                0x00000000       0x2c ./emdrv/tempdrv.o
 .text.TEMPDRV_RegisterCallback
                0x00000000       0xfc ./emdrv/tempdrv.o
 .text.TEMPDRV_UnregisterCallback
                0x00000000       0x74 ./emdrv/tempdrv.o
 .bss.TEMPDRV_EnableState
                0x00000000        0x1 ./emdrv/tempdrv.o
 .text          0x00000000        0x0 ./emdrv/uartdrv.o
 .data          0x00000000        0x0 ./emdrv/uartdrv.o
 .bss           0x00000000        0x0 ./emdrv/uartdrv.o
 .text.SetHandleIndex
                0x00000000       0x50 ./emdrv/uartdrv.o
 .text.GetTailBuffer
                0x00000000       0x38 ./emdrv/uartdrv.o
 .text.DequeueBuffer
                0x00000000       0x54 ./emdrv/uartdrv.o
 .text.ConfigGpio
                0x00000000       0xdc ./emdrv/uartdrv.o
 .text.StartReceiveDma
                0x00000000       0x4c ./emdrv/uartdrv.o
 .text.StartTransmitDma
                0x00000000       0x50 ./emdrv/uartdrv.o
 .text.TransmitDmaComplete
                0x00000000       0x64 ./emdrv/uartdrv.o
 .text.HwFcGetClearToSendPin.part.0
                0x00000000       0x1c ./emdrv/uartdrv.o
 .text.HwFcManageClearToSend
                0x00000000       0x7c ./emdrv/uartdrv.o
 .text.EnableReceiver
                0x00000000       0x44 ./emdrv/uartdrv.o
 .text.DisableReceiver
                0x00000000       0x38 ./emdrv/uartdrv.o
 .text.InitializeDma
                0x00000000       0x2c ./emdrv/uartdrv.o
 .text.EnqueueBuffer.constprop.11
                0x00000000       0x74 ./emdrv/uartdrv.o
 .text.UARTDRV_GetPeripheralStatus
                0x00000000       0x50 ./emdrv/uartdrv.o
 .text.UARTDRV_Abort.part.6
                0x00000000      0x12c ./emdrv/uartdrv.o
 .text.UARTDRV_Abort
                0x00000000       0x10 ./emdrv/uartdrv.o
 .text.UARTDRV_GetReceiveDepth
                0x00000000        0x8 ./emdrv/uartdrv.o
 .text.UARTDRV_GetReceiveStatus
                0x00000000       0x68 ./emdrv/uartdrv.o
 .text.UARTDRV_GetTransmitDepth
                0x00000000        0x8 ./emdrv/uartdrv.o
 .text.UARTDRV_GetTransmitStatus
                0x00000000       0x68 ./emdrv/uartdrv.o
 .text.UARTDRV_FlowControlGetPeerStatus
                0x00000000        0x4 ./emdrv/uartdrv.o
 .text.UARTDRV_FlowControlGetSelfStatus
                0x00000000        0x4 ./emdrv/uartdrv.o
 .text.UARTDRV_FlowControlIgnoreRestrain
                0x00000000        0xc ./emdrv/uartdrv.o
 .text.UARTDRV_ForceReceive
                0x00000000       0xc0 ./emdrv/uartdrv.o
 .text.UARTDRV_ForceTransmit
                0x00000000      0x144 ./emdrv/uartdrv.o
 .text.UARTDRV_PauseTransmit
                0x00000000       0x3c ./emdrv/uartdrv.o
 .text.UARTDRV_ResumeTransmit
                0x00000000       0x50 ./emdrv/uartdrv.o
 .text.FcApplyState
                0x00000000       0x8c ./emdrv/uartdrv.o
 .text.UARTDRV_InitLeuart
                0x00000000      0x46c ./emdrv/uartdrv.o
 .text.UARTDRV_DeInit
                0x00000000       0x9c ./emdrv/uartdrv.o
 .text.UARTDRV_Receive
                0x00000000       0x7c ./emdrv/uartdrv.o
 .text.ReceiveDmaComplete
                0x00000000       0xfc ./emdrv/uartdrv.o
 .text.UARTDRV_ReceiveB
                0x00000000       0xa8 ./emdrv/uartdrv.o
 .text.UARTDRV_FlowControlSet
                0x00000000       0x1c ./emdrv/uartdrv.o
 .text.UARTDRV_InitUart
                0x00000000      0x574 ./emdrv/uartdrv.o
 .text.UARTDRV_FlowControlSetPeerStatus
                0x00000000       0x40 ./emdrv/uartdrv.o
 .text.UARTDRV_Transmit
                0x00000000       0x78 ./emdrv/uartdrv.o
 .text.UARTDRV_TransmitB
                0x00000000       0x98 ./emdrv/uartdrv.o
 .rodata        0x00000000       0x2c ./emdrv/uartdrv.o
 .bss.uartdrvHandleIsInitialized
                0x00000000        0x1 ./emdrv/uartdrv.o
 .bss.uartdrvHandle
                0x00000000       0x10 ./emdrv/uartdrv.o
 .debug_info    0x00000000     0x4203 ./emdrv/uartdrv.o
 .debug_abbrev  0x00000000      0x556 ./emdrv/uartdrv.o
 .debug_loc     0x00000000     0x2e2a ./emdrv/uartdrv.o
 .debug_aranges
                0x00000000      0x148 ./emdrv/uartdrv.o
 .debug_ranges  0x00000000      0x468 ./emdrv/uartdrv.o
 .debug_line    0x00000000      0xfb6 ./emdrv/uartdrv.o
 .debug_str     0x00000000     0x2724 ./emdrv/uartdrv.o
 .comment       0x00000000       0x71 ./emdrv/uartdrv.o
 .debug_frame   0x00000000      0x4f8 ./emdrv/uartdrv.o
 .ARM.attributes
                0x00000000       0x37 ./emdrv/uartdrv.o
 .text          0x00000000        0x0 ./emlib/em_adc.o
 .data          0x00000000        0x0 ./emlib/em_adc.o
 .bss           0x00000000        0x0 ./emlib/em_adc.o
 .text.ADC_LoadDevinfoCal
                0x00000000       0xb8 ./emlib/em_adc.o
 .text.ADC_ScanInputClear
                0x00000000       0x14 ./emlib/em_adc.o
 .text.ADC_ScanSingleEndedInputAdd
                0x00000000       0x3c ./emlib/em_adc.o
 .text.ADC_ScanDifferentialInputAdd
                0x00000000       0xb8 ./emlib/em_adc.o
 .text.ADC_InitScan
                0x00000000       0x90 ./emlib/em_adc.o
 .text.ADC_InitSingle
                0x00000000       0xbc ./emlib/em_adc.o
 .text.ADC_DataIdScanGet
                0x00000000        0xc ./emlib/em_adc.o
 .text.ADC_PrescaleCalc
                0x00000000       0x4c ./emlib/em_adc.o
 .text.ADC_Init
                0x00000000       0x60 ./emlib/em_adc.o
 .text.ADC_Reset
                0x00000000       0x64 ./emlib/em_adc.o
 .text.ADC_TimebaseCalc
                0x00000000       0x30 ./emlib/em_adc.o
 .rodata.CSWTCH.18
                0x00000000       0x14 ./emlib/em_adc.o
 .rodata.CSWTCH.19
                0x00000000       0x14 ./emlib/em_adc.o
 .debug_info    0x00000000     0x1e73 ./emlib/em_adc.o
 .debug_abbrev  0x00000000      0x306 ./emlib/em_adc.o
 .debug_loc     0x00000000      0xb37 ./emlib/em_adc.o
 .debug_aranges
                0x00000000       0x70 ./emlib/em_adc.o
 .debug_ranges  0x00000000      0x110 ./emlib/em_adc.o
 .debug_line    0x00000000      0x532 ./emlib/em_adc.o
 .debug_str     0x00000000     0x2c4d ./emlib/em_adc.o
 .comment       0x00000000       0x71 ./emlib/em_adc.o
 .debug_frame   0x00000000      0x148 ./emlib/em_adc.o
 .ARM.attributes
                0x00000000       0x37 ./emlib/em_adc.o
 .text          0x00000000        0x0 ./emlib/em_cmu.o
 .data          0x00000000        0x0 ./emlib/em_cmu.o
 .bss           0x00000000        0x0 ./emlib/em_cmu.o
 .text.CMU_AUXHFRCOBandGet
                0x00000000        0xc ./emlib/em_cmu.o
 .text.CMU_AUXHFRCOBandSet
                0x00000000      0x104 ./emlib/em_cmu.o
 .text.CMU_Calibrate
                0x00000000       0x58 ./emlib/em_cmu.o
 .text.CMU_CalibrateConfig
                0x00000000       0x7c ./emlib/em_cmu.o
 .text.CMU_CalibrateCountGet
                0x00000000       0x20 ./emlib/em_cmu.o
 .text.CMU_DPLLLock
                0x00000000      0x1e4 ./emlib/em_cmu.o
 .text.CMU_FreezeEnable
                0x00000000       0x24 ./emlib/em_cmu.o
 .text.CMU_HFRCOBandGet
                0x00000000        0xc ./emlib/em_cmu.o
 .text.CMU_LCDClkFDIVGet
                0x00000000        0x4 ./emlib/em_cmu.o
 .text.CMU_LCDClkFDIVSet
                0x00000000        0x4 ./emlib/em_cmu.o
 .text.CMU_OscillatorTuningGet
                0x00000000       0x40 ./emlib/em_cmu.o
 .text.CMU_OscillatorTuningSet
                0x00000000       0x78 ./emlib/em_cmu.o
 .text.CMU_OscillatorTuningOptimize
                0x00000000       0x24 ./emlib/em_cmu.o
 .text.CMU_PCNTClockExternalGet
                0x00000000       0x18 ./emlib/em_cmu.o
 .text.CMU_PCNTClockExternalSet
                0x00000000       0x10 ./emlib/em_cmu.o
 .rodata.hfrcoCtrlTable
                0x00000000      0x150 ./emlib/em_cmu.o
 .text          0x00000000        0x0 ./emlib/em_core.o
 .data          0x00000000        0x0 ./emlib/em_core.o
 .bss           0x00000000        0x0 ./emlib/em_core.o
 .text.CORE_CriticalDisableIrq
                0x00000000        0x4 ./emlib/em_core.o
 .text.CORE_CriticalEnableIrq
                0x00000000        0x4 ./emlib/em_core.o
 .text.CORE_YieldCritical
                0x00000000       0x10 ./emlib/em_core.o
 .text.CORE_AtomicDisableIrq
                0x00000000        0x4 ./emlib/em_core.o
 .text.CORE_AtomicEnableIrq
                0x00000000        0x4 ./emlib/em_core.o
 .text.CORE_YieldAtomic
                0x00000000       0x10 ./emlib/em_core.o
 .text.CORE_EnterNvicMask
                0x00000000       0x2c ./emlib/em_core.o
 .text.CORE_NvicDisableMask
                0x00000000       0x20 ./emlib/em_core.o
 .text.CORE_NvicEnableMask
                0x00000000       0x20 ./emlib/em_core.o
 .text.CORE_YieldNvicMask
                0x00000000       0x38 ./emlib/em_core.o
 .text.CORE_NvicMaskSetIRQ
                0x00000000       0x1c ./emlib/em_core.o
 .text.CORE_NvicMaskClearIRQ
                0x00000000       0x20 ./emlib/em_core.o
 .text.CORE_InIrqContext
                0x00000000       0x14 ./emlib/em_core.o
 .text.CORE_IrqIsBlocked
                0x00000000       0xa8 ./emlib/em_core.o
 .text.CORE_IrqIsDisabled
                0x00000000        0xc ./emlib/em_core.o
 .text.CORE_GetNvicEnabledMask
                0x00000000       0x20 ./emlib/em_core.o
 .text.CORE_GetNvicMaskDisableState
                0x00000000       0x2c ./emlib/em_core.o
 .text.CORE_NvicIRQDisabled
                0x00000000       0x20 ./emlib/em_core.o
 .text.CORE_GetNvicRamTableHandler
                0x00000000       0x10 ./emlib/em_core.o
 .text          0x00000000        0x0 ./emlib/em_crypto.o
 .data          0x00000000        0x0 ./emlib/em_crypto.o
 .bss           0x00000000        0x0 ./emlib/em_crypto.o
 .text.CRYPTO_SHA_1
                0x00000000      0x2b0 ./emlib/em_crypto.o
 .text.CRYPTO_SHA_256
                0x00000000      0x2d4 ./emlib/em_crypto.o
 .text.CRYPTO_Mul
                0x00000000      0x1a8 ./emlib/em_crypto.o
 .text.CRYPTO_AES_CBC128
                0x00000000      0x148 ./emlib/em_crypto.o
 .text.CRYPTO_AES_CBC256
                0x00000000      0x164 ./emlib/em_crypto.o
 .text.CRYPTO_AES_CFB128
                0x00000000      0x148 ./emlib/em_crypto.o
 .text.CRYPTO_AES_CFB256
                0x00000000      0x164 ./emlib/em_crypto.o
 .text.CRYPTO_AES_CTR128
                0x00000000       0xe0 ./emlib/em_crypto.o
 .text.CRYPTO_AES_CTR256
                0x00000000      0x10c ./emlib/em_crypto.o
 .text.CRYPTO_AES_CTRUpdate32Bit
                0x00000000        0xc ./emlib/em_crypto.o
 .text.CRYPTO_AES_DecryptKey128
                0x00000000       0x30 ./emlib/em_crypto.o
 .text.CRYPTO_AES_DecryptKey256
                0x00000000       0x50 ./emlib/em_crypto.o
 .text.CRYPTO_AES_ECB128
                0x00000000       0xa0 ./emlib/em_crypto.o
 .text.CRYPTO_AES_ECB256
                0x00000000       0xcc ./emlib/em_crypto.o
 .text.CRYPTO_AES_OFB128
                0x00000000       0xb4 ./emlib/em_crypto.o
 .text.CRYPTO_AES_OFB256
                0x00000000       0xd8 ./emlib/em_crypto.o
 .text          0x00000000        0x0 ./emlib/em_emu.o
 .data          0x00000000        0x0 ./emlib/em_emu.o
 .bss           0x00000000        0x0 ./emlib/em_emu.o
 .text.vmonCalibratedThreshold
                0x00000000       0xac ./emlib/em_emu.o
 .text.EMU_MemPwrDown
                0x00000000       0x10 ./emlib/em_emu.o
 .text.EMU_RamPowerDown
                0x00000000       0xcc ./emlib/em_emu.o
 .text.EMU_PeripheralRetention
                0x00000000       0x14 ./emlib/em_emu.o
 .text.EMU_UpdateOscConfig
                0x00000000        0x8 ./emlib/em_emu.o
 .text.EMU_EnterEM4H
                0x00000000       0x10 ./emlib/em_emu.o
 .text.EMU_EnterEM4S
                0x00000000       0x10 ./emlib/em_emu.o
 .text.EMU_DCDCConductionModeSet
                0x00000000       0x70 ./emlib/em_emu.o
 .text.EMU_DCDCPowerOff
                0x00000000       0x28 ./emlib/em_emu.o
 .text.EMU_VmonInit
                0x00000000      0x108 ./emlib/em_emu.o
 .text.EMU_VmonHystInit
                0x00000000       0x78 ./emlib/em_emu.o
 .text.EMU_VmonEnable
                0x00000000       0x30 ./emlib/em_emu.o
 .text.EMU_VmonChannelStatusGet
                0x00000000       0x2c ./emlib/em_emu.o
 .rodata.CSWTCH.96
                0x00000000       0x10 ./emlib/em_emu.o
 .text          0x00000000        0x0 ./emlib/em_gpio.o
 .data          0x00000000        0x0 ./emlib/em_gpio.o
 .bss           0x00000000        0x0 ./emlib/em_gpio.o
 .text.GPIO_DbgLocationSet
                0x00000000        0x4 ./emlib/em_gpio.o
 .text.GPIO_DriveStrengthSet
                0x00000000       0x20 ./emlib/em_gpio.o
 .text.GPIO_PinModeGet
                0x00000000       0x30 ./emlib/em_gpio.o
 .text.GPIO_EM4EnablePinWakeup
                0x00000000       0x48 ./emlib/em_gpio.o
 .text          0x00000000        0x0 ./emlib/em_i2c.o
 .data          0x00000000        0x0 ./emlib/em_i2c.o
 .bss           0x00000000        0x0 ./emlib/em_i2c.o
 .text.I2C_BusFreqGet
                0x00000000       0x2c ./emlib/em_i2c.o
 .text.I2C_BusFreqSet
                0x00000000        0x8 ./emlib/em_i2c.o
 .text.I2C_Reset
                0x00000000       0x18 ./emlib/em_i2c.o
 .text.I2C_Transfer
                0x00000000      0x220 ./emlib/em_i2c.o
 .text.I2C_TransferInit
                0x00000000       0x78 ./emlib/em_i2c.o
 .bss.i2cTransfer
                0x00000000       0x18 ./emlib/em_i2c.o
 .text          0x00000000        0x0 ./emlib/em_ldma.o
 .data          0x00000000        0x0 ./emlib/em_ldma.o
 .bss           0x00000000        0x0 ./emlib/em_ldma.o
 .text.LDMA_DeInit
                0x00000000       0x2c ./emlib/em_ldma.o
 .text.LDMA_EnableChannelRequest
                0x00000000       0x14 ./emlib/em_ldma.o
 .text.LDMA_Init
                0x00000000       0x58 ./emlib/em_ldma.o
 .text.LDMA_StartTransfer
                0x00000000       0xa8 ./emlib/em_ldma.o
 .text.LDMA_StopTransfer
                0x00000000       0x28 ./emlib/em_ldma.o
 .text.LDMA_TransferDone
                0x00000000       0x34 ./emlib/em_ldma.o
 .text.LDMA_TransferRemainingCount
                0x00000000       0x40 ./emlib/em_ldma.o
 .debug_info    0x00000000     0x132e ./emlib/em_ldma.o
 .debug_abbrev  0x00000000      0x385 ./emlib/em_ldma.o
 .debug_loc     0x00000000      0x46d ./emlib/em_ldma.o
 .debug_aranges
                0x00000000       0x50 ./emlib/em_ldma.o
 .debug_ranges  0x00000000       0xf0 ./emlib/em_ldma.o
 .debug_line    0x00000000      0x466 ./emlib/em_ldma.o
 .debug_str     0x00000000      0xbfe ./emlib/em_ldma.o
 .comment       0x00000000       0x71 ./emlib/em_ldma.o
 .debug_frame   0x00000000       0xdc ./emlib/em_ldma.o
 .ARM.attributes
                0x00000000       0x37 ./emlib/em_ldma.o
 .text          0x00000000        0x0 ./emlib/em_leuart.o
 .data          0x00000000        0x0 ./emlib/em_leuart.o
 .bss           0x00000000        0x0 ./emlib/em_leuart.o
 .text.LEUART_BaudrateCalc
                0x00000000       0x20 ./emlib/em_leuart.o
 .text.LEUART_BaudrateGet
                0x00000000       0x40 ./emlib/em_leuart.o
 .text.LEUART_BaudrateSet
                0x00000000       0x54 ./emlib/em_leuart.o
 .text.LEUART_Enable
                0x00000000       0x1c ./emlib/em_leuart.o
 .text.LEUART_FreezeEnable
                0x00000000       0x14 ./emlib/em_leuart.o
 .text.LEUART_Init
                0x00000000       0x4c ./emlib/em_leuart.o
 .text.LEUART_Reset
                0x00000000       0x30 ./emlib/em_leuart.o
 .text.LEUART_Rx
                0x00000000        0xc ./emlib/em_leuart.o
 .text.LEUART_RxExt
                0x00000000        0xc ./emlib/em_leuart.o
 .text.LEUART_Tx
                0x00000000       0x18 ./emlib/em_leuart.o
 .text.LEUART_TxExt
                0x00000000       0x18 ./emlib/em_leuart.o
 .text.LEUART_TxDmaInEM2Enable
                0x00000000       0x28 ./emlib/em_leuart.o
 .text.LEUART_RxDmaInEM2Enable
                0x00000000       0x28 ./emlib/em_leuart.o
 .debug_info    0x00000000      0xac2 ./emlib/em_leuart.o
 .debug_abbrev  0x00000000      0x300 ./emlib/em_leuart.o
 .debug_loc     0x00000000      0x46f ./emlib/em_leuart.o
 .debug_aranges
                0x00000000       0x80 ./emlib/em_leuart.o
 .debug_ranges  0x00000000      0x120 ./emlib/em_leuart.o
 .debug_line    0x00000000      0x4a8 ./emlib/em_leuart.o
 .debug_str     0x00000000      0x7e0 ./emlib/em_leuart.o
 .comment       0x00000000       0x71 ./emlib/em_leuart.o
 .debug_frame   0x00000000      0x11c ./emlib/em_leuart.o
 .ARM.attributes
                0x00000000       0x37 ./emlib/em_leuart.o
 .text          0x00000000        0x0 ./emlib/em_msc.o
 .data          0x00000000        0x0 ./emlib/em_msc.o
 .bss           0x00000000        0x0 ./emlib/em_msc.o
 .text.MSC_ExecConfigSet
                0x00000000       0x70 ./emlib/em_msc.o
 .text          0x00000000        0x0 ./emlib/em_rmu.o
 .data          0x00000000        0x0 ./emlib/em_rmu.o
 .bss           0x00000000        0x0 ./emlib/em_rmu.o
 .text.RMU_ResetControl
                0x00000000       0x24 ./emlib/em_rmu.o
 .text          0x00000000        0x0 ./emlib/em_rtcc.o
 .data          0x00000000        0x0 ./emlib/em_rtcc.o
 .bss           0x00000000        0x0 ./emlib/em_rtcc.o
 .text.RTCC_ChannelInit
                0x00000000       0x3c ./emlib/em_rtcc.o
 .text.RTCC_Reset
                0x00000000       0x94 ./emlib/em_rtcc.o
 .text.RTCC_StatusClear
                0x00000000       0x14 ./emlib/em_rtcc.o
 .text          0x00000000        0x0 ./emlib/em_system.o
 .data          0x00000000        0x0 ./emlib/em_system.o
 .bss           0x00000000        0x0 ./emlib/em_system.o
 .text.SYSTEM_GetCalibrationValue
                0x00000000       0x28 ./emlib/em_system.o
 .text          0x00000000        0x0 ./emlib/em_usart.o
 .data          0x00000000        0x0 ./emlib/em_usart.o
 .bss           0x00000000        0x0 ./emlib/em_usart.o
 .text.USART_BaudrateCalc
                0x00000000       0x7c ./emlib/em_usart.o
 .text.USART_BaudrateGet
                0x00000000       0x24 ./emlib/em_usart.o
 .text.USART_InitPrsTrigger
                0x00000000       0x2c ./emlib/em_usart.o
 .text.USARTn_InitIrDA
                0x00000000       0x40 ./emlib/em_usart.o
 .text.USART_InitI2s
                0x00000000       0x54 ./emlib/em_usart.o
 .text.USART_RxDouble
                0x00000000        0xc ./emlib/em_usart.o
 .text.USART_RxDoubleExt
                0x00000000        0xc ./emlib/em_usart.o
 .text.USART_RxExt
                0x00000000        0xc ./emlib/em_usart.o
 .text.USART_TxDoubleExt
                0x00000000        0xc ./emlib/em_usart.o
 .text.USART_TxExt
                0x00000000        0xc ./emlib/em_usart.o
 .text          0x00000000        0x0 ./glib/BRD4104A/bmp.o
 .data          0x00000000        0x0 ./glib/BRD4104A/bmp.o
 .bss           0x00000000        0x0 ./glib/BRD4104A/bmp.o
 .text.BMP_readRawData8bit
                0x00000000       0x7c ./glib/BRD4104A/bmp.o
 .text.unlikely.BMP_readPaddingBytes.part.0
                0x00000000       0x28 ./glib/BRD4104A/bmp.o
 .text.unlikely.BMP_readRleData.isra.1
                0x00000000       0x9c ./glib/BRD4104A/bmp.o
 .text.BMP_init
                0x00000000       0x44 ./glib/BRD4104A/bmp.o
 .text.BMP_reset
                0x00000000      0x104 ./glib/BRD4104A/bmp.o
 .text.BMP_readRawData
                0x00000000      0x290 ./glib/BRD4104A/bmp.o
 .text.BMP_readRgbData
                0x00000000      0x384 ./glib/BRD4104A/bmp.o
 .text.BMP_getWidth
                0x00000000       0x28 ./glib/BRD4104A/bmp.o
 .text.BMP_getHeight
                0x00000000       0x28 ./glib/BRD4104A/bmp.o
 .text.BMP_getBitsPerPixel
                0x00000000       0x28 ./glib/BRD4104A/bmp.o
 .text.BMP_getCompressionType
                0x00000000       0x28 ./glib/BRD4104A/bmp.o
 .text.BMP_getImageDataSize
                0x00000000       0x28 ./glib/BRD4104A/bmp.o
 .text.BMP_getDataOffset
                0x00000000       0x28 ./glib/BRD4104A/bmp.o
 .text.BMP_getFileSize
                0x00000000       0x28 ./glib/BRD4104A/bmp.o
 .bss.fileReset
                0x00000000        0x4 ./glib/BRD4104A/bmp.o
 .bss.localCache
                0x00000000       0x80 ./glib/BRD4104A/bmp.o
 .bss.dataIdx   0x00000000        0x4 ./glib/BRD4104A/bmp.o
 .bss.moduleInit
                0x00000000        0x4 ./glib/BRD4104A/bmp.o
 .bss.bytesInImage
                0x00000000        0x4 ./glib/BRD4104A/bmp.o
 .bss.paletteRead
                0x00000000        0x4 ./glib/BRD4104A/bmp.o
 .debug_info    0x00000000      0xcc5 ./glib/BRD4104A/bmp.o
 .debug_abbrev  0x00000000      0x2d6 ./glib/BRD4104A/bmp.o
 .debug_loc     0x00000000      0xf59 ./glib/BRD4104A/bmp.o
 .debug_aranges
                0x00000000       0x88 ./glib/BRD4104A/bmp.o
 .debug_ranges  0x00000000      0x140 ./glib/BRD4104A/bmp.o
 .debug_line    0x00000000      0x59e ./glib/BRD4104A/bmp.o
 .debug_str     0x00000000      0x5b1 ./glib/BRD4104A/bmp.o
 .comment       0x00000000       0x71 ./glib/BRD4104A/bmp.o
 .debug_frame   0x00000000      0x190 ./glib/BRD4104A/bmp.o
 .ARM.attributes
                0x00000000       0x37 ./glib/BRD4104A/bmp.o
 COMMON         0x00000000       0x50 ./glib/BRD4104A/bmp.o
 .text          0x00000000        0x0 ./glib/BRD4104A/dmd_display.o
 .data          0x00000000        0x0 ./glib/BRD4104A/dmd_display.o
 .bss           0x00000000        0x0 ./glib/BRD4104A/dmd_display.o
 .text.DMD_writeData
                0x00000000      0x1a0 ./glib/BRD4104A/dmd_display.o
 .text.DMD_readData
                0x00000000        0x4 ./glib/BRD4104A/dmd_display.o
 .text.DMD_sleep
                0x00000000        0xc ./glib/BRD4104A/dmd_display.o
 .text.DMD_wakeUp
                0x00000000        0xc ./glib/BRD4104A/dmd_display.o
 .text.DMD_flipDisplay
                0x00000000        0x4 ./glib/BRD4104A/dmd_display.o
 .text.DMD_freeFramebuffer
                0x00000000       0x10 ./glib/BRD4104A/dmd_display.o
 .text.DMD_selectFramebuffer
                0x00000000       0x24 ./glib/BRD4104A/dmd_display.o
 .text.DMD_copyFramebuffer
                0x00000000       0x38 ./glib/BRD4104A/dmd_display.o
 .text          0x00000000        0x0 ./glib/BRD4104A/glib.o
 .data          0x00000000        0x0 ./glib/BRD4104A/glib.o
 .bss           0x00000000        0x0 ./glib/BRD4104A/glib.o
 .text.GLIB_displayWakeUp
                0x00000000        0x4 ./glib/BRD4104A/glib.o
 .text.GLIB_displaySleep
                0x00000000        0x4 ./glib/BRD4104A/glib.o
 .text.GLIB_setClippingRegion
                0x00000000        0xc ./glib/BRD4104A/glib.o
 .text.GLIB_clearRegion
                0x00000000       0x44 ./glib/BRD4104A/glib.o
 .text.GLIB_resetDisplayClippingArea
                0x00000000       0x14 ./glib/BRD4104A/glib.o
 .text.GLIB_resetClippingRegion
                0x00000000       0x20 ./glib/BRD4104A/glib.o
 .text.GLIB_applyClippingRegion
                0x00000000        0xc ./glib/BRD4104A/glib.o
 .text.GLIB_colorTranslate24bpp
                0x00000000       0x10 ./glib/BRD4104A/glib.o
 .text.GLIB_rgbColor
                0x00000000        0xc ./glib/BRD4104A/glib.o
 .text.GLIB_drawPixelRGB
                0x00000000       0x44 ./glib/BRD4104A/glib.o
 .text          0x00000000        0x0 ./glib/BRD4104A/glib_bitmap.o
 .data          0x00000000        0x0 ./glib/BRD4104A/glib_bitmap.o
 .bss           0x00000000        0x0 ./glib/BRD4104A/glib_bitmap.o
 .text.GLIB_drawBitmap
                0x00000000       0x34 ./glib/BRD4104A/glib_bitmap.o
 .debug_info    0x00000000      0x42c ./glib/BRD4104A/glib_bitmap.o
 .debug_abbrev  0x00000000      0x150 ./glib/BRD4104A/glib_bitmap.o
 .debug_loc     0x00000000      0x147 ./glib/BRD4104A/glib_bitmap.o
 .debug_aranges
                0x00000000       0x20 ./glib/BRD4104A/glib_bitmap.o
 .debug_ranges  0x00000000       0x10 ./glib/BRD4104A/glib_bitmap.o
 .debug_line    0x00000000      0x26c ./glib/BRD4104A/glib_bitmap.o
 .debug_str     0x00000000      0x474 ./glib/BRD4104A/glib_bitmap.o
 .comment       0x00000000       0x71 ./glib/BRD4104A/glib_bitmap.o
 .debug_frame   0x00000000       0x38 ./glib/BRD4104A/glib_bitmap.o
 .ARM.attributes
                0x00000000       0x37 ./glib/BRD4104A/glib_bitmap.o
 .text          0x00000000        0x0 ./glib/BRD4104A/glib_circle.o
 .data          0x00000000        0x0 ./glib/BRD4104A/glib_circle.o
 .bss           0x00000000        0x0 ./glib/BRD4104A/glib_circle.o
 .text.GLIB_drawPartialCirclePoints
                0x00000000       0x84 ./glib/BRD4104A/glib_circle.o
 .text.GLIB_drawPartialCircle
                0x00000000       0x90 ./glib/BRD4104A/glib_circle.o
 .text.GLIB_drawCircle
                0x00000000       0x10 ./glib/BRD4104A/glib_circle.o
 .text.GLIB_drawCircleFilled
                0x00000000       0xd8 ./glib/BRD4104A/glib_circle.o
 .debug_info    0x00000000      0x704 ./glib/BRD4104A/glib_circle.o
 .debug_abbrev  0x00000000      0x1a4 ./glib/BRD4104A/glib_circle.o
 .debug_loc     0x00000000      0x7de ./glib/BRD4104A/glib_circle.o
 .debug_aranges
                0x00000000       0x38 ./glib/BRD4104A/glib_circle.o
 .debug_ranges  0x00000000       0x28 ./glib/BRD4104A/glib_circle.o
 .debug_line    0x00000000      0x323 ./glib/BRD4104A/glib_circle.o
 .debug_str     0x00000000      0x4cb ./glib/BRD4104A/glib_circle.o
 .comment       0x00000000       0x71 ./glib/BRD4104A/glib_circle.o
 .debug_frame   0x00000000       0xe0 ./glib/BRD4104A/glib_circle.o
 .ARM.attributes
                0x00000000       0x37 ./glib/BRD4104A/glib_circle.o
 .text          0x00000000        0x0 ./glib/BRD4104A/glib_font_narrow_6x8.o
 .data          0x00000000        0x0 ./glib/BRD4104A/glib_font_narrow_6x8.o
 .bss           0x00000000        0x0 ./glib/BRD4104A/glib_font_narrow_6x8.o
 .rodata.GLIB_FontNarrow6x8
                0x00000000       0x10 ./glib/BRD4104A/glib_font_narrow_6x8.o
 .rodata.GLIB_FontNarrow6x8PixMap
                0x00000000      0x320 ./glib/BRD4104A/glib_font_narrow_6x8.o
 .debug_info    0x00000000      0x19a ./glib/BRD4104A/glib_font_narrow_6x8.o
 .debug_abbrev  0x00000000       0xa7 ./glib/BRD4104A/glib_font_narrow_6x8.o
 .debug_aranges
                0x00000000       0x18 ./glib/BRD4104A/glib_font_narrow_6x8.o
 .debug_line    0x00000000      0x18d ./glib/BRD4104A/glib_font_narrow_6x8.o
 .debug_str     0x00000000      0x30c ./glib/BRD4104A/glib_font_narrow_6x8.o
 .comment       0x00000000       0x71 ./glib/BRD4104A/glib_font_narrow_6x8.o
 .ARM.attributes
                0x00000000       0x37 ./glib/BRD4104A/glib_font_narrow_6x8.o
 .text          0x00000000        0x0 ./glib/BRD4104A/glib_font_normal_8x8.o
 .data          0x00000000        0x0 ./glib/BRD4104A/glib_font_normal_8x8.o
 .bss           0x00000000        0x0 ./glib/BRD4104A/glib_font_normal_8x8.o
 .text          0x00000000        0x0 ./glib/BRD4104A/glib_font_number_16x20.o
 .data          0x00000000        0x0 ./glib/BRD4104A/glib_font_number_16x20.o
 .bss           0x00000000        0x0 ./glib/BRD4104A/glib_font_number_16x20.o
 .rodata.GLIB_FontNumber16x20
                0x00000000       0x10 ./glib/BRD4104A/glib_font_number_16x20.o
 .rodata.GLIB_FontNumber16x20PixMap
                0x00000000      0x1e0 ./glib/BRD4104A/glib_font_number_16x20.o
 .debug_info    0x00000000      0x199 ./glib/BRD4104A/glib_font_number_16x20.o
 .debug_abbrev  0x00000000       0xa7 ./glib/BRD4104A/glib_font_number_16x20.o
 .debug_aranges
                0x00000000       0x18 ./glib/BRD4104A/glib_font_number_16x20.o
 .debug_line    0x00000000      0x18f ./glib/BRD4104A/glib_font_number_16x20.o
 .debug_str     0x00000000      0x312 ./glib/BRD4104A/glib_font_number_16x20.o
 .comment       0x00000000       0x71 ./glib/BRD4104A/glib_font_number_16x20.o
 .ARM.attributes
                0x00000000       0x37 ./glib/BRD4104A/glib_font_number_16x20.o
 .text          0x00000000        0x0 ./glib/BRD4104A/glib_line.o
 .data          0x00000000        0x0 ./glib/BRD4104A/glib_line.o
 .bss           0x00000000        0x0 ./glib/BRD4104A/glib_line.o
 .text.GLIB_drawLineH
                0x00000000       0x90 ./glib/BRD4104A/glib_line.o
 .text.GLIB_drawLineV
                0x00000000       0x94 ./glib/BRD4104A/glib_line.o
 .text.GLIB_drawLine
                0x00000000      0x294 ./glib/BRD4104A/glib_line.o
 .debug_info    0x00000000      0xa26 ./glib/BRD4104A/glib_line.o
 .debug_abbrev  0x00000000      0x272 ./glib/BRD4104A/glib_line.o
 .debug_loc     0x00000000     0x3e73 ./glib/BRD4104A/glib_line.o
 .debug_aranges
                0x00000000       0x30 ./glib/BRD4104A/glib_line.o
 .debug_ranges  0x00000000      0x100 ./glib/BRD4104A/glib_line.o
 .debug_line    0x00000000      0x41e ./glib/BRD4104A/glib_line.o
 .debug_str     0x00000000      0x52f ./glib/BRD4104A/glib_line.o
 .comment       0x00000000       0x71 ./glib/BRD4104A/glib_line.o
 .debug_frame   0x00000000       0xc0 ./glib/BRD4104A/glib_line.o
 .ARM.attributes
                0x00000000       0x37 ./glib/BRD4104A/glib_line.o
 .text          0x00000000        0x0 ./glib/BRD4104A/glib_polygon.o
 .data          0x00000000        0x0 ./glib/BRD4104A/glib_polygon.o
 .bss           0x00000000        0x0 ./glib/BRD4104A/glib_polygon.o
 .text.GLIB_drawPolygon
                0x00000000       0x88 ./glib/BRD4104A/glib_polygon.o
 .debug_info    0x00000000      0x426 ./glib/BRD4104A/glib_polygon.o
 .debug_abbrev  0x00000000      0x127 ./glib/BRD4104A/glib_polygon.o
 .debug_loc     0x00000000      0x220 ./glib/BRD4104A/glib_polygon.o
 .debug_aranges
                0x00000000       0x20 ./glib/BRD4104A/glib_polygon.o
 .debug_ranges  0x00000000       0x10 ./glib/BRD4104A/glib_polygon.o
 .debug_line    0x00000000      0x2a8 ./glib/BRD4104A/glib_polygon.o
 .debug_str     0x00000000      0x483 ./glib/BRD4104A/glib_polygon.o
 .comment       0x00000000       0x71 ./glib/BRD4104A/glib_polygon.o
 .debug_frame   0x00000000       0x48 ./glib/BRD4104A/glib_polygon.o
 .ARM.attributes
                0x00000000       0x37 ./glib/BRD4104A/glib_polygon.o
 .text          0x00000000        0x0 ./glib/BRD4104A/glib_rectangle.o
 .data          0x00000000        0x0 ./glib/BRD4104A/glib_rectangle.o
 .bss           0x00000000        0x0 ./glib/BRD4104A/glib_rectangle.o
 .text.GLIB_normalizeRect
                0x00000000       0x1c ./glib/BRD4104A/glib_rectangle.o
 .text.GLIB_drawRect
                0x00000000       0x9c ./glib/BRD4104A/glib_rectangle.o
 .text.GLIB_drawRectFilled
                0x00000000       0xa8 ./glib/BRD4104A/glib_rectangle.o
 .text          0x00000000        0x0 ./glib/BRD4104A/glib_string.o
 .data          0x00000000        0x0 ./glib/BRD4104A/glib_string.o
 .bss           0x00000000        0x0 ./glib/BRD4104A/glib_string.o
 .text.GLIB_drawChar
                0x00000000       0x24 ./glib/BRD4104A/glib_string.o
 .text          0x00000000        0x0 ./kit/BRD4104A/bsp_bcc.o
 .data          0x00000000        0x0 ./kit/BRD4104A/bsp_bcc.o
 .bss           0x00000000        0x0 ./kit/BRD4104A/bsp_bcc.o
 .text.BSP_BccPinsEnable.part.0
                0x00000000       0x40 ./kit/BRD4104A/bsp_bcc.o
 .text.BSP_BccInit
                0x00000000       0x64 ./kit/BRD4104A/bsp_bcc.o
 .text.BSP_BccPacketReceive
                0x00000000       0x9c ./kit/BRD4104A/bsp_bcc.o
 .text.BSP_BccPacketSend
                0x00000000       0x80 ./kit/BRD4104A/bsp_bcc.o
 .text.BSP_BccPinsEnable
                0x00000000       0x40 ./kit/BRD4104A/bsp_bcc.o
 .text.BSP_BccDeInit
                0x00000000       0x38 ./kit/BRD4104A/bsp_bcc.o
 .rodata        0x00000000       0x1c ./kit/BRD4104A/bsp_bcc.o
 .bss.rxByteCount
                0x00000000        0x4 ./kit/BRD4104A/bsp_bcc.o
 .bss.txByteCount
                0x00000000        0x4 ./kit/BRD4104A/bsp_bcc.o
 .debug_info    0x00000000      0xccd ./kit/BRD4104A/bsp_bcc.o
 .debug_abbrev  0x00000000      0x28e ./kit/BRD4104A/bsp_bcc.o
 .debug_loc     0x00000000      0x3c1 ./kit/BRD4104A/bsp_bcc.o
 .debug_aranges
                0x00000000       0x48 ./kit/BRD4104A/bsp_bcc.o
 .debug_ranges  0x00000000      0x110 ./kit/BRD4104A/bsp_bcc.o
 .debug_line    0x00000000      0x43c ./kit/BRD4104A/bsp_bcc.o
 .debug_str     0x00000000      0xc4b ./kit/BRD4104A/bsp_bcc.o
 .comment       0x00000000       0x71 ./kit/BRD4104A/bsp_bcc.o
 .debug_frame   0x00000000       0xc0 ./kit/BRD4104A/bsp_bcc.o
 .ARM.attributes
                0x00000000       0x37 ./kit/BRD4104A/bsp_bcc.o
 .text          0x00000000        0x0 ./kit/BRD4104A/bsp_stk.o
 .data          0x00000000        0x0 ./kit/BRD4104A/bsp_stk.o
 .bss           0x00000000        0x0 ./kit/BRD4104A/bsp_stk.o
 .text.BSP_Disable
                0x00000000        0xc ./kit/BRD4104A/bsp_stk.o
 .text.BSP_EbiInit
                0x00000000        0x8 ./kit/BRD4104A/bsp_stk.o
 .text.BSP_EbiDeInit
                0x00000000        0x8 ./kit/BRD4104A/bsp_stk.o
 .text.BSP_IOExpGetDeviceId
                0x00000000        0x4 ./kit/BRD4104A/bsp_stk.o
 .text.BSP_Init
                0x00000000       0x14 ./kit/BRD4104A/bsp_stk.o
 .text.BSP_PeripheralAccess
                0x00000000        0x8 ./kit/BRD4104A/bsp_stk.o
 .text.BSP_CurrentGet
                0x00000000       0x30 ./kit/BRD4104A/bsp_stk.o
 .text.BSP_VoltageGet
                0x00000000       0x30 ./kit/BRD4104A/bsp_stk.o
 .debug_info    0x00000000      0x37b ./kit/BRD4104A/bsp_stk.o
 .debug_abbrev  0x00000000      0x1da ./kit/BRD4104A/bsp_stk.o
 .debug_loc     0x00000000      0x10d ./kit/BRD4104A/bsp_stk.o
 .debug_aranges
                0x00000000       0x58 ./kit/BRD4104A/bsp_stk.o
 .debug_ranges  0x00000000       0x48 ./kit/BRD4104A/bsp_stk.o
 .debug_line    0x00000000      0x293 ./kit/BRD4104A/bsp_stk.o
 .debug_str     0x00000000      0x38f ./kit/BRD4104A/bsp_stk.o
 .comment       0x00000000       0x71 ./kit/BRD4104A/bsp_stk.o
 .debug_frame   0x00000000       0xb8 ./kit/BRD4104A/bsp_stk.o
 .ARM.attributes
                0x00000000       0x37 ./kit/BRD4104A/bsp_stk.o
 .text          0x00000000        0x0 ./kit/BRD4104A/bsp_stk_leds.o
 .data          0x00000000        0x0 ./kit/BRD4104A/bsp_stk_leds.o
 .bss           0x00000000        0x0 ./kit/BRD4104A/bsp_stk_leds.o
 .text.BSP_LedsInit
                0x00000000       0x38 ./kit/BRD4104A/bsp_stk_leds.o
 .text.BSP_LedsGet
                0x00000000       0x20 ./kit/BRD4104A/bsp_stk_leds.o
 .text.BSP_LedsSet
                0x00000000       0x24 ./kit/BRD4104A/bsp_stk_leds.o
 .text.BSP_LedClear
                0x00000000       0x34 ./kit/BRD4104A/bsp_stk_leds.o
 .text.BSP_LedGet
                0x00000000       0x30 ./kit/BRD4104A/bsp_stk_leds.o
 .text.BSP_LedSet
                0x00000000       0x34 ./kit/BRD4104A/bsp_stk_leds.o
 .text.BSP_LedToggle
                0x00000000       0x34 ./kit/BRD4104A/bsp_stk_leds.o
 .rodata.ledArray
                0x00000000       0x10 ./kit/BRD4104A/bsp_stk_leds.o
 .debug_info    0x00000000      0xb1a ./kit/BRD4104A/bsp_stk_leds.o
 .debug_abbrev  0x00000000      0x293 ./kit/BRD4104A/bsp_stk_leds.o
 .debug_loc     0x00000000      0x6f5 ./kit/BRD4104A/bsp_stk_leds.o
 .debug_aranges
                0x00000000       0x50 ./kit/BRD4104A/bsp_stk_leds.o
 .debug_ranges  0x00000000      0x128 ./kit/BRD4104A/bsp_stk_leds.o
 .debug_line    0x00000000      0x435 ./kit/BRD4104A/bsp_stk_leds.o
 .debug_str     0x00000000      0x87c ./kit/BRD4104A/bsp_stk_leds.o
 .comment       0x00000000       0x71 ./kit/BRD4104A/bsp_stk_leds.o
 .debug_frame   0x00000000       0x88 ./kit/BRD4104A/bsp_stk_leds.o
 .ARM.attributes
                0x00000000       0x37 ./kit/BRD4104A/bsp_stk_leds.o
 .text          0x00000000        0x0 ./kit/BRD4104A/i2cspm.o
 .data          0x00000000        0x0 ./kit/BRD4104A/i2cspm.o
 .bss           0x00000000        0x0 ./kit/BRD4104A/i2cspm.o
 .text.I2CSPM_Init
                0x00000000       0xbc ./kit/BRD4104A/i2cspm.o
 .text.I2CSPM_Transfer
                0x00000000       0x28 ./kit/BRD4104A/i2cspm.o
 .debug_info    0x00000000      0xb96 ./kit/BRD4104A/i2cspm.o
 .debug_abbrev  0x00000000      0x283 ./kit/BRD4104A/i2cspm.o
 .debug_loc     0x00000000      0x284 ./kit/BRD4104A/i2cspm.o
 .debug_aranges
                0x00000000       0x28 ./kit/BRD4104A/i2cspm.o
 .debug_ranges  0x00000000       0x48 ./kit/BRD4104A/i2cspm.o
 .debug_line    0x00000000      0x3c0 ./kit/BRD4104A/i2cspm.o
 .debug_str     0x00000000      0xa66 ./kit/BRD4104A/i2cspm.o
 .comment       0x00000000       0x71 ./kit/BRD4104A/i2cspm.o
 .debug_frame   0x00000000       0x58 ./kit/BRD4104A/i2cspm.o
 .ARM.attributes
                0x00000000       0x37 ./kit/BRD4104A/i2cspm.o
 .text          0x00000000        0x0 ./kit/BRD4104A/si7013.o
 .data          0x00000000        0x0 ./kit/BRD4104A/si7013.o
 .bss           0x00000000        0x0 ./kit/BRD4104A/si7013.o
 .text.Si7013_Measure
                0x00000000       0x54 ./kit/BRD4104A/si7013.o
 .text.Si7013_WriteUserReg2
                0x00000000       0x38 ./kit/BRD4104A/si7013.o
 .text.Si7013_GetFirmwareRevision
                0x00000000       0x58 ./kit/BRD4104A/si7013.o
 .text.Si7013_StartNoHoldMeasureRHAndTemp
                0x00000000       0x30 ./kit/BRD4104A/si7013.o
 .text.Si7013_ReadNoHoldRHAndTemp
                0x00000000       0x94 ./kit/BRD4104A/si7013.o
 .text.Si7013_MeasureRHAndTemp
                0x00000000       0x58 ./kit/BRD4104A/si7013.o
 .text.Si7013_MeasureV
                0x00000000       0x30 ./kit/BRD4104A/si7013.o
 .text.Si7013_Detect
                0x00000000       0x58 ./kit/BRD4104A/si7013.o
 .debug_info    0x00000000      0x998 ./kit/BRD4104A/si7013.o
 .debug_abbrev  0x00000000      0x2d0 ./kit/BRD4104A/si7013.o
 .debug_loc     0x00000000      0x661 ./kit/BRD4104A/si7013.o
 .debug_aranges
                0x00000000       0x58 ./kit/BRD4104A/si7013.o
 .debug_ranges  0x00000000       0x80 ./kit/BRD4104A/si7013.o
 .debug_line    0x00000000      0x413 ./kit/BRD4104A/si7013.o
 .debug_str     0x00000000      0x4bf ./kit/BRD4104A/si7013.o
 .comment       0x00000000       0x71 ./kit/BRD4104A/si7013.o
 .debug_frame   0x00000000      0x140 ./kit/BRD4104A/si7013.o
 .ARM.attributes
                0x00000000       0x37 ./kit/BRD4104A/si7013.o
 .text          0x00000000        0x0 ./kit/BRD4104A/tempsens.o
 .data          0x00000000        0x0 ./kit/BRD4104A/tempsens.o
 .bss           0x00000000        0x0 ./kit/BRD4104A/tempsens.o
 .text.TEMPSENS_Celsius2Fahrenheit
                0x00000000       0x48 ./kit/BRD4104A/tempsens.o
 .text.TEMPSENS_RegisterGet
                0x00000000       0x5c ./kit/BRD4104A/tempsens.o
 .text.TEMPSENS_RegisterSet
                0x00000000       0x54 ./kit/BRD4104A/tempsens.o
 .text.TEMPSENS_TemperatureGet
                0x00000000       0x68 ./kit/BRD4104A/tempsens.o
 .debug_info    0x00000000      0x5bc ./kit/BRD4104A/tempsens.o
 .debug_abbrev  0x00000000      0x1c9 ./kit/BRD4104A/tempsens.o
 .debug_loc     0x00000000      0x4bc ./kit/BRD4104A/tempsens.o
 .debug_aranges
                0x00000000       0x38 ./kit/BRD4104A/tempsens.o
 .debug_ranges  0x00000000       0x28 ./kit/BRD4104A/tempsens.o
 .debug_line    0x00000000      0x377 ./kit/BRD4104A/tempsens.o
 .debug_str     0x00000000      0x486 ./kit/BRD4104A/tempsens.o
 .comment       0x00000000       0x71 ./kit/BRD4104A/tempsens.o
 .debug_frame   0x00000000       0xa8 ./kit/BRD4104A/tempsens.o
 .ARM.attributes
                0x00000000       0x37 ./kit/BRD4104A/tempsens.o
 .text          0x00000000        0x0 ./kit/BRD4104A/udelay.o
 .data          0x00000000        0x0 ./kit/BRD4104A/udelay.o
 .bss           0x00000000        0x0 ./kit/BRD4104A/udelay.o
 .text          0x00000000        0x0 ./kit_flashpwr/BRD4104A/mx25flash_spi.o
 .data          0x00000000        0x0 ./kit_flashpwr/BRD4104A/mx25flash_spi.o
 .bss           0x00000000        0x0 ./kit_flashpwr/BRD4104A/mx25flash_spi.o
 .text.GetByte.part.0
                0x00000000        0xc ./kit_flashpwr/BRD4104A/mx25flash_spi.o
 .text.Wait_Flash_WarmUp
                0x00000000       0x20 ./kit_flashpwr/BRD4104A/mx25flash_spi.o
 .text.Initial_Spi
                0x00000000       0x20 ./kit_flashpwr/BRD4104A/mx25flash_spi.o
 .text.CS_Low   0x00000000        0xc ./kit_flashpwr/BRD4104A/mx25flash_spi.o
 .text.CS_High  0x00000000        0xc ./kit_flashpwr/BRD4104A/mx25flash_spi.o
 .text.InsertDummyCycle
                0x00000000       0x1c ./kit_flashpwr/BRD4104A/mx25flash_spi.o
 .text.SendByte
                0x00000000       0x10 ./kit_flashpwr/BRD4104A/mx25flash_spi.o
 .text.GetByte  0x00000000        0xc ./kit_flashpwr/BRD4104A/mx25flash_spi.o
 .text.WaitRYBYReady
                0x00000000       0x10 ./kit_flashpwr/BRD4104A/mx25flash_spi.o
 .text.SendFlashAddr
                0x00000000       0x40 ./kit_flashpwr/BRD4104A/mx25flash_spi.o
 .text.MX25_RDID
                0x00000000       0x40 ./kit_flashpwr/BRD4104A/mx25flash_spi.o
 .text.MX25_RES
                0x00000000       0x48 ./kit_flashpwr/BRD4104A/mx25flash_spi.o
 .text.MX25_REMS
                0x00000000       0x54 ./kit_flashpwr/BRD4104A/mx25flash_spi.o
 .text.MX25_RDSR
                0x00000000       0x2c ./kit_flashpwr/BRD4104A/mx25flash_spi.o
 .text.IsFlashBusy
                0x00000000       0x1c ./kit_flashpwr/BRD4104A/mx25flash_spi.o
 .text.WaitFlashReady
                0x00000000       0x34 ./kit_flashpwr/BRD4104A/mx25flash_spi.o
 .text.IsFlashQIO
                0x00000000       0x1c ./kit_flashpwr/BRD4104A/mx25flash_spi.o
 .text.MX25_WRSR
                0x00000000       0x64 ./kit_flashpwr/BRD4104A/mx25flash_spi.o
 .text.MX25_RDSCUR
                0x00000000       0x2c ./kit_flashpwr/BRD4104A/mx25flash_spi.o
 .text.IsFlash4Byte
                0x00000000       0x1c ./kit_flashpwr/BRD4104A/mx25flash_spi.o
 .text.MX25_WRSCUR
                0x00000000       0x6c ./kit_flashpwr/BRD4104A/mx25flash_spi.o
 .text.MX25_RDCR
                0x00000000       0x2c ./kit_flashpwr/BRD4104A/mx25flash_spi.o
 .text.GetDummyCycle
                0x00000000       0x14 ./kit_flashpwr/BRD4104A/mx25flash_spi.o
 .text.MX25_READ
                0x00000000       0x64 ./kit_flashpwr/BRD4104A/mx25flash_spi.o
 .text.MX25_2READ
                0x00000000       0x6c ./kit_flashpwr/BRD4104A/mx25flash_spi.o
 .text.MX25_4READ
                0x00000000       0x80 ./kit_flashpwr/BRD4104A/mx25flash_spi.o
 .text.MX25_DREAD
                0x00000000       0x74 ./kit_flashpwr/BRD4104A/mx25flash_spi.o
 .text.MX25_QREAD
                0x00000000       0x88 ./kit_flashpwr/BRD4104A/mx25flash_spi.o
 .text.MX25_FASTREAD
                0x00000000       0x74 ./kit_flashpwr/BRD4104A/mx25flash_spi.o
 .text.MX25_RDSFDP
                0x00000000       0x6c ./kit_flashpwr/BRD4104A/mx25flash_spi.o
 .text.MX25_WREN
                0x00000000       0x24 ./kit_flashpwr/BRD4104A/mx25flash_spi.o
 .text.MX25_WRDI
                0x00000000       0x24 ./kit_flashpwr/BRD4104A/mx25flash_spi.o
 .text.MX25_PP  0x00000000       0xa8 ./kit_flashpwr/BRD4104A/mx25flash_spi.o
 .text.MX25_4PP
                0x00000000       0xa0 ./kit_flashpwr/BRD4104A/mx25flash_spi.o
 .text.MX25_SE  0x00000000       0x90 ./kit_flashpwr/BRD4104A/mx25flash_spi.o
 .text.MX25_BE32K
                0x00000000       0x90 ./kit_flashpwr/BRD4104A/mx25flash_spi.o
 .text.MX25_BE  0x00000000       0x90 ./kit_flashpwr/BRD4104A/mx25flash_spi.o
 .text.MX25_CE  0x00000000       0x5c ./kit_flashpwr/BRD4104A/mx25flash_spi.o
 .text.MX25_ENSO
                0x00000000       0x24 ./kit_flashpwr/BRD4104A/mx25flash_spi.o
 .text.MX25_EXSO
                0x00000000       0x24 ./kit_flashpwr/BRD4104A/mx25flash_spi.o
 .text.MX25_SBL
                0x00000000       0x30 ./kit_flashpwr/BRD4104A/mx25flash_spi.o
 .text.MX25_RSTEN
                0x00000000       0x24 ./kit_flashpwr/BRD4104A/mx25flash_spi.o
 .text.MX25_RST
                0x00000000       0x2c ./kit_flashpwr/BRD4104A/mx25flash_spi.o
 .text.MX25_PGM_ERS_S
                0x00000000       0x24 ./kit_flashpwr/BRD4104A/mx25flash_spi.o
 .text.MX25_PGM_ERS_R
                0x00000000       0x24 ./kit_flashpwr/BRD4104A/mx25flash_spi.o
 .text.MX25_NOP
                0x00000000       0x24 ./kit_flashpwr/BRD4104A/mx25flash_spi.o
 .text          0x00000000        0x0 ./kit_lcd/BRD4104A/display.o
 .data          0x00000000        0x0 ./kit_lcd/BRD4104A/display.o
 .bss           0x00000000        0x0 ./kit_lcd/BRD4104A/display.o
 .text.DISPLAY_DriverRefresh
                0x00000000       0x34 ./kit_lcd/BRD4104A/display.o
 .text          0x00000000        0x0 ./kit_lcd/BRD4104A/displayls013b7dh03.o
 .data          0x00000000        0x0 ./kit_lcd/BRD4104A/displayls013b7dh03.o
 .bss           0x00000000        0x0 ./kit_lcd/BRD4104A/displayls013b7dh03.o
 .text          0x00000000        0x0 ./kit_lcd/BRD4104A/displaypalemlib.o
 .data          0x00000000        0x0 ./kit_lcd/BRD4104A/displaypalemlib.o
 .bss           0x00000000        0x0 ./kit_lcd/BRD4104A/displaypalemlib.o
 .text.PAL_SpiShutdown
                0x00000000       0x20 ./kit_lcd/BRD4104A/displaypalemlib.o
 .text.PAL_TimerShutdown
                0x00000000        0x4 ./kit_lcd/BRD4104A/displaypalemlib.o
 .text.PAL_GpioShutdown
                0x00000000       0x14 ./kit_lcd/BRD4104A/displaypalemlib.o
 .text          0x00000000        0x0 ./serial_vcom/retargetio.o
 .data          0x00000000        0x0 ./serial_vcom/retargetio.o
 .bss           0x00000000        0x0 ./serial_vcom/retargetio.o
 .text._getpid  0x00000000        0x4 ./serial_vcom/retargetio.o
 .text._kill    0x00000000        0x8 ./serial_vcom/retargetio.o
 .text          0x00000000        0x0 ./serial_vcom/retargetserial.o
 .data          0x00000000        0x0 ./serial_vcom/retargetserial.o
 .bss           0x00000000        0x0 ./serial_vcom/retargetserial.o
 .text.RETARGET_SerialCrLf
                0x00000000       0x14 ./serial_vcom/retargetserial.o
 .text          0x00000000        0x0 ./src/InitDevice.o
 .data          0x00000000        0x0 ./src/InitDevice.o
 .bss           0x00000000        0x0 ./src/InitDevice.o
 .text.LFXO_enter_DefaultMode_from_RESET
                0x00000000        0x4 ./src/InitDevice.o
 .text.ADC0_enter_DefaultMode_from_RESET
                0x00000000        0x4 ./src/InitDevice.o
 .text.ACMP0_enter_DefaultMode_from_RESET
                0x00000000        0x4 ./src/InitDevice.o
 .text.ACMP1_enter_DefaultMode_from_RESET
                0x00000000        0x4 ./src/InitDevice.o
 .text.IDAC0_enter_DefaultMode_from_RESET
                0x00000000        0x4 ./src/InitDevice.o
 .text.VDAC0_enter_DefaultMode_from_RESET
                0x00000000        0x4 ./src/InitDevice.o
 .text.OPA0_enter_DefaultMode_from_RESET
                0x00000000        0x4 ./src/InitDevice.o
 .text.OPA1_enter_DefaultMode_from_RESET
                0x00000000        0x4 ./src/InitDevice.o
 .text.OPA2_enter_DefaultMode_from_RESET
                0x00000000        0x4 ./src/InitDevice.o
 .text.LESENSE_enter_DefaultMode_from_RESET
                0x00000000        0x4 ./src/InitDevice.o
 .text.USART0_enter_DefaultMode_from_RESET
                0x00000000        0x4 ./src/InitDevice.o
 .text.USART1_enter_DefaultMode_from_RESET
                0x00000000        0x4 ./src/InitDevice.o
 .text.USART2_enter_DefaultMode_from_RESET
                0x00000000        0x4 ./src/InitDevice.o
 .text.LEUART0_enter_DefaultMode_from_RESET
                0x00000000        0x4 ./src/InitDevice.o
 .text.WDOG0_enter_DefaultMode_from_RESET
                0x00000000        0x4 ./src/InitDevice.o
 .text.WDOG1_enter_DefaultMode_from_RESET
                0x00000000        0x4 ./src/InitDevice.o
 .text.I2C0_enter_DefaultMode_from_RESET
                0x00000000        0x4 ./src/InitDevice.o
 .text.I2C1_enter_DefaultMode_from_RESET
                0x00000000        0x4 ./src/InitDevice.o
 .text.GPCRC_enter_DefaultMode_from_RESET
                0x00000000        0x4 ./src/InitDevice.o
 .text.LDMA_enter_DefaultMode_from_RESET
                0x00000000        0x4 ./src/InitDevice.o
 .text.TIMER0_enter_DefaultMode_from_RESET
                0x00000000        0x4 ./src/InitDevice.o
 .text.TIMER1_enter_DefaultMode_from_RESET
                0x00000000        0x4 ./src/InitDevice.o
 .text.WTIMER0_enter_DefaultMode_from_RESET
                0x00000000        0x4 ./src/InitDevice.o
 .text.LETIMER0_enter_DefaultMode_from_RESET
                0x00000000        0x4 ./src/InitDevice.o
 .text.CRYOTIMER_enter_DefaultMode_from_RESET
                0x00000000        0x4 ./src/InitDevice.o
 .text.PCNT0_enter_DefaultMode_from_RESET
                0x00000000        0x4 ./src/InitDevice.o
 .text.PRS_enter_DefaultMode_from_RESET
                0x00000000       0x10 ./src/InitDevice.o
 .text.CRYPTO0_enter_DefaultMode_from_RESET
                0x00000000        0x4 ./src/InitDevice.o
 .text.CRYPTO1_enter_DefaultMode_from_RESET
                0x00000000        0x4 ./src/InitDevice.o
 .text.TRNG0_enter_DefaultMode_from_RESET
                0x00000000        0x4 ./src/InitDevice.o
 .text.SMU_enter_DefaultMode_from_RESET
                0x00000000        0x4 ./src/InitDevice.o
 .text.CSEN0_enter_DefaultMode_from_RESET
                0x00000000        0x4 ./src/InitDevice.o
 .text.PORTIO_enter_DefaultMode_from_RESET
                0x00000000        0x4 ./src/InitDevice.o
 .text          0x00000000        0x0 ./src/cmu.o
 .data          0x00000000        0x0 ./src/cmu.o
 .bss           0x00000000        0x0 ./src/cmu.o
 .text.cmu_init
                0x00000000       0x2c ./src/cmu.o
 .text.cmu_init_LETIMER0
                0x00000000       0x34 ./src/cmu.o
 .text.cmu_init_ADC0
                0x00000000       0x48 ./src/cmu.o
 .text.cmu_init_TIMER0
                0x00000000       0x20 ./src/cmu.o
 .text.cmu_init_USARTn
                0x00000000       0x38 ./src/cmu.o
 .text.cmu_init_I2C0
                0x00000000       0x2c ./src/cmu.o
 .debug_info    0x00000000      0xb77 ./src/cmu.o
 .debug_abbrev  0x00000000      0x15b ./src/cmu.o
 .debug_loc     0x00000000      0x191 ./src/cmu.o
 .debug_aranges
                0x00000000       0x48 ./src/cmu.o
 .debug_ranges  0x00000000       0x38 ./src/cmu.o
 .debug_line    0x00000000      0x2f8 ./src/cmu.o
 .debug_str     0x00000000      0xacb ./src/cmu.o
 .comment       0x00000000       0x71 ./src/cmu.o
 .debug_frame   0x00000000       0xc8 ./src/cmu.o
 .ARM.attributes
                0x00000000       0x37 ./src/cmu.o
 .text          0x00000000        0x0 ./src/i2c.o
 .data          0x00000000        0x0 ./src/i2c.o
 .bss           0x00000000        0x0 ./src/i2c.o
 .text.i2c_enable
                0x00000000       0x24 ./src/i2c.o
 .text.i2c_disable
                0x00000000       0x24 ./src/i2c.o
 COMMON         0x00000000        0x0 ./src/i2c.o
 .text          0x00000000        0x0 ./src/timer0.o
 .data          0x00000000        0x0 ./src/timer0.o
 .bss           0x00000000        0x0 ./src/timer0.o
 .text.TIMER0_init
                0x00000000       0x38 ./src/timer0.o
 .text.TIMER0_setup
                0x00000000       0x1c ./src/timer0.o
 .text.TIMER0_startwithCount
                0x00000000       0x24 ./src/timer0.o
 .text          0x00000000        0x0 ./stack/bt_mesh_stack/mesh_lib.o
 .data          0x00000000        0x0 ./stack/bt_mesh_stack/mesh_lib.o
 .bss           0x00000000        0x0 ./stack/bt_mesh_stack/mesh_lib.o
 .text.serialize_request
                0x00000000      0x120 ./stack/bt_mesh_stack/mesh_lib.o
 .text.deserialize_state
                0x00000000      0x128 ./stack/bt_mesh_stack/mesh_lib.o
 .text.mesh_lib_deinit
                0x00000000       0x24 ./stack/bt_mesh_stack/mesh_lib.o
 .text.mesh_lib_generic_client_register_handler
                0x00000000       0x64 ./stack/bt_mesh_stack/mesh_lib.o
 .text.mesh_lib_generic_client_event_handler
                0x00000000       0x9c ./stack/bt_mesh_stack/mesh_lib.o
 .text.mesh_lib_generic_client_get
                0x00000000       0x3c ./stack/bt_mesh_stack/mesh_lib.o
 .text.mesh_lib_generic_client_set
                0x00000000       0xbc ./stack/bt_mesh_stack/mesh_lib.o
 .text.mesh_lib_generic_client_publish
                0x00000000       0xa0 ./stack/bt_mesh_stack/mesh_lib.o
 .text          0x00000000        0x0 c:/siliconlabs/simplicitystudio/v4/developer/toolchains/gnu_arm/4.9_2015q3/bin/../lib/gcc/arm-none-eabi/4.9.3/../../../../arm-none-eabi/lib/armv7e-m/softfp\libm.a(lib_a-w_pow.o)
 .data          0x00000000        0x0 c:/siliconlabs/simplicitystudio/v4/developer/toolchains/gnu_arm/4.9_2015q3/bin/../lib/gcc/arm-none-eabi/4.9.3/../../../../arm-none-eabi/lib/armv7e-m/softfp\libm.a(lib_a-w_pow.o)
 .bss           0x00000000        0x0 c:/siliconlabs/simplicitystudio/v4/developer/toolchains/gnu_arm/4.9_2015q3/bin/../lib/gcc/arm-none-eabi/4.9.3/../../../../arm-none-eabi/lib/armv7e-m/softfp\libm.a(lib_a-w_pow.o)
 .text          0x00000000        0x0 c:/siliconlabs/simplicitystudio/v4/developer/toolchains/gnu_arm/4.9_2015q3/bin/../lib/gcc/arm-none-eabi/4.9.3/../../../../arm-none-eabi/lib/armv7e-m/softfp\libm.a(lib_a-e_pow.o)
 .data          0x00000000        0x0 c:/siliconlabs/simplicitystudio/v4/developer/toolchains/gnu_arm/4.9_2015q3/bin/../lib/gcc/arm-none-eabi/4.9.3/../../../../arm-none-eabi/lib/armv7e-m/softfp\libm.a(lib_a-e_pow.o)
 .bss           0x00000000        0x0 c:/siliconlabs/simplicitystudio/v4/developer/toolchains/gnu_arm/4.9_2015q3/bin/../lib/gcc/arm-none-eabi/4.9.3/../../../../arm-none-eabi/lib/armv7e-m/softfp\libm.a(lib_a-e_pow.o)
 .text          0x00000000        0x0 c:/siliconlabs/simplicitystudio/v4/developer/toolchains/gnu_arm/4.9_2015q3/bin/../lib/gcc/arm-none-eabi/4.9.3/../../../../arm-none-eabi/lib/armv7e-m/softfp\libm.a(lib_a-e_sqrt.o)
 .data          0x00000000        0x0 c:/siliconlabs/simplicitystudio/v4/developer/toolchains/gnu_arm/4.9_2015q3/bin/../lib/gcc/arm-none-eabi/4.9.3/../../../../arm-none-eabi/lib/armv7e-m/softfp\libm.a(lib_a-e_sqrt.o)
 .bss           0x00000000        0x0 c:/siliconlabs/simplicitystudio/v4/developer/toolchains/gnu_arm/4.9_2015q3/bin/../lib/gcc/arm-none-eabi/4.9.3/../../../../arm-none-eabi/lib/armv7e-m/softfp\libm.a(lib_a-e_sqrt.o)
 .text          0x00000000        0x0 c:/siliconlabs/simplicitystudio/v4/developer/toolchains/gnu_arm/4.9_2015q3/bin/../lib/gcc/arm-none-eabi/4.9.3/../../../../arm-none-eabi/lib/armv7e-m/softfp\libm.a(lib_a-s_fabs.o)
 .data          0x00000000        0x0 c:/siliconlabs/simplicitystudio/v4/developer/toolchains/gnu_arm/4.9_2015q3/bin/../lib/gcc/arm-none-eabi/4.9.3/../../../../arm-none-eabi/lib/armv7e-m/softfp\libm.a(lib_a-s_fabs.o)
 .bss           0x00000000        0x0 c:/siliconlabs/simplicitystudio/v4/developer/toolchains/gnu_arm/4.9_2015q3/bin/../lib/gcc/arm-none-eabi/4.9.3/../../../../arm-none-eabi/lib/armv7e-m/softfp\libm.a(lib_a-s_fabs.o)
 .text          0x00000000        0x0 c:/siliconlabs/simplicitystudio/v4/developer/toolchains/gnu_arm/4.9_2015q3/bin/../lib/gcc/arm-none-eabi/4.9.3/../../../../arm-none-eabi/lib/armv7e-m/softfp\libm.a(lib_a-s_finite.o)
 .data          0x00000000        0x0 c:/siliconlabs/simplicitystudio/v4/developer/toolchains/gnu_arm/4.9_2015q3/bin/../lib/gcc/arm-none-eabi/4.9.3/../../../../arm-none-eabi/lib/armv7e-m/softfp\libm.a(lib_a-s_finite.o)
 .bss           0x00000000        0x0 c:/siliconlabs/simplicitystudio/v4/developer/toolchains/gnu_arm/4.9_2015q3/bin/../lib/gcc/arm-none-eabi/4.9.3/../../../../arm-none-eabi/lib/armv7e-m/softfp\libm.a(lib_a-s_finite.o)
 .text          0x00000000        0x0 c:/siliconlabs/simplicitystudio/v4/developer/toolchains/gnu_arm/4.9_2015q3/bin/../lib/gcc/arm-none-eabi/4.9.3/../../../../arm-none-eabi/lib/armv7e-m/softfp\libm.a(lib_a-s_fpclassify.o)
 .data          0x00000000        0x0 c:/siliconlabs/simplicitystudio/v4/developer/toolchains/gnu_arm/4.9_2015q3/bin/../lib/gcc/arm-none-eabi/4.9.3/../../../../arm-none-eabi/lib/armv7e-m/softfp\libm.a(lib_a-s_fpclassify.o)
 .bss           0x00000000        0x0 c:/siliconlabs/simplicitystudio/v4/developer/toolchains/gnu_arm/4.9_2015q3/bin/../lib/gcc/arm-none-eabi/4.9.3/../../../../arm-none-eabi/lib/armv7e-m/softfp\libm.a(lib_a-s_fpclassify.o)
 .text          0x00000000        0x0 c:/siliconlabs/simplicitystudio/v4/developer/toolchains/gnu_arm/4.9_2015q3/bin/../lib/gcc/arm-none-eabi/4.9.3/../../../../arm-none-eabi/lib/armv7e-m/softfp\libm.a(lib_a-s_lib_ver.o)
 .data          0x00000000        0x0 c:/siliconlabs/simplicitystudio/v4/developer/toolchains/gnu_arm/4.9_2015q3/bin/../lib/gcc/arm-none-eabi/4.9.3/../../../../arm-none-eabi/lib/armv7e-m/softfp\libm.a(lib_a-s_lib_ver.o)
 .bss           0x00000000        0x0 c:/siliconlabs/simplicitystudio/v4/developer/toolchains/gnu_arm/4.9_2015q3/bin/../lib/gcc/arm-none-eabi/4.9.3/../../../../arm-none-eabi/lib/armv7e-m/softfp\libm.a(lib_a-s_lib_ver.o)
 .text          0x00000000        0x0 c:/siliconlabs/simplicitystudio/v4/developer/toolchains/gnu_arm/4.9_2015q3/bin/../lib/gcc/arm-none-eabi/4.9.3/../../../../arm-none-eabi/lib/armv7e-m/softfp\libm.a(lib_a-s_matherr.o)
 .data          0x00000000        0x0 c:/siliconlabs/simplicitystudio/v4/developer/toolchains/gnu_arm/4.9_2015q3/bin/../lib/gcc/arm-none-eabi/4.9.3/../../../../arm-none-eabi/lib/armv7e-m/softfp\libm.a(lib_a-s_matherr.o)
 .bss           0x00000000        0x0 c:/siliconlabs/simplicitystudio/v4/developer/toolchains/gnu_arm/4.9_2015q3/bin/../lib/gcc/arm-none-eabi/4.9.3/../../../../arm-none-eabi/lib/armv7e-m/softfp\libm.a(lib_a-s_matherr.o)
 .text          0x00000000        0x0 c:/siliconlabs/simplicitystudio/v4/developer/toolchains/gnu_arm/4.9_2015q3/bin/../lib/gcc/arm-none-eabi/4.9.3/../../../../arm-none-eabi/lib/armv7e-m/softfp\libm.a(lib_a-s_nan.o)
 .data          0x00000000        0x0 c:/siliconlabs/simplicitystudio/v4/developer/toolchains/gnu_arm/4.9_2015q3/bin/../lib/gcc/arm-none-eabi/4.9.3/../../../../arm-none-eabi/lib/armv7e-m/softfp\libm.a(lib_a-s_nan.o)
 .bss           0x00000000        0x0 c:/siliconlabs/simplicitystudio/v4/developer/toolchains/gnu_arm/4.9_2015q3/bin/../lib/gcc/arm-none-eabi/4.9.3/../../../../arm-none-eabi/lib/armv7e-m/softfp\libm.a(lib_a-s_nan.o)
 .text          0x00000000        0x0 c:/siliconlabs/simplicitystudio/v4/developer/toolchains/gnu_arm/4.9_2015q3/bin/../lib/gcc/arm-none-eabi/4.9.3/../../../../arm-none-eabi/lib/armv7e-m/softfp\libm.a(lib_a-s_rint.o)
 .data          0x00000000        0x0 c:/siliconlabs/simplicitystudio/v4/developer/toolchains/gnu_arm/4.9_2015q3/bin/../lib/gcc/arm-none-eabi/4.9.3/../../../../arm-none-eabi/lib/armv7e-m/softfp\libm.a(lib_a-s_rint.o)
 .bss           0x00000000        0x0 c:/siliconlabs/simplicitystudio/v4/developer/toolchains/gnu_arm/4.9_2015q3/bin/../lib/gcc/arm-none-eabi/4.9.3/../../../../arm-none-eabi/lib/armv7e-m/softfp\libm.a(lib_a-s_rint.o)
 .text          0x00000000        0x0 c:/siliconlabs/simplicitystudio/v4/developer/toolchains/gnu_arm/4.9_2015q3/bin/../lib/gcc/arm-none-eabi/4.9.3/../../../../arm-none-eabi/lib/armv7e-m/softfp\libm.a(lib_a-s_scalbn.o)
 .data          0x00000000        0x0 c:/siliconlabs/simplicitystudio/v4/developer/toolchains/gnu_arm/4.9_2015q3/bin/../lib/gcc/arm-none-eabi/4.9.3/../../../../arm-none-eabi/lib/armv7e-m/softfp\libm.a(lib_a-s_scalbn.o)
 .bss           0x00000000        0x0 c:/siliconlabs/simplicitystudio/v4/developer/toolchains/gnu_arm/4.9_2015q3/bin/../lib/gcc/arm-none-eabi/4.9.3/../../../../arm-none-eabi/lib/armv7e-m/softfp\libm.a(lib_a-s_scalbn.o)
 .text          0x00000000        0x0 c:/siliconlabs/simplicitystudio/v4/developer/toolchains/gnu_arm/4.9_2015q3/bin/../lib/gcc/arm-none-eabi/4.9.3/../../../../arm-none-eabi/lib/armv7e-m/softfp\libm.a(lib_a-s_copysign.o)
 .data          0x00000000        0x0 c:/siliconlabs/simplicitystudio/v4/developer/toolchains/gnu_arm/4.9_2015q3/bin/../lib/gcc/arm-none-eabi/4.9.3/../../../../arm-none-eabi/lib/armv7e-m/softfp\libm.a(lib_a-s_copysign.o)
 .bss           0x00000000        0x0 c:/siliconlabs/simplicitystudio/v4/developer/toolchains/gnu_arm/4.9_2015q3/bin/../lib/gcc/arm-none-eabi/4.9.3/../../../../arm-none-eabi/lib/armv7e-m/softfp\libm.a(lib_a-s_copysign.o)
 .rodata.gattdb_flag_checksum_ready
                0x00000000        0x4 C:/SiliconLabs/SimplicityStudio/v4/developer/sdks/blemesh/v1.1//protocol/bluetooth_dev/lib/EFR32XG13X/GCC/\libbluetooth_mesh.a
 .rodata.rail_ver
                0x00000000        0xc C:/SiliconLabs/SimplicityStudio/v4/developer/sdks/blemesh/v1.1//protocol/bluetooth_dev/lib/EFR32XG13X/GCC/\libbluetooth_mesh.a
 .data.rssi_limit
                0x00000000        0x1 C:/SiliconLabs/SimplicityStudio/v4/developer/sdks/blemesh/v1.1//protocol/bluetooth_dev/lib/EFR32XG13X/GCC/\libbluetooth_mesh.a
 .data          0x00000000        0x0 c:/siliconlabs/simplicitystudio/v4/developer/toolchains/gnu_arm/4.9_2015q3/bin/../lib/gcc/arm-none-eabi/4.9.3/armv7e-m/softfp\libgcc.a(_arm_addsubdf3.o)
 .bss           0x00000000        0x0 c:/siliconlabs/simplicitystudio/v4/developer/toolchains/gnu_arm/4.9_2015q3/bin/../lib/gcc/arm-none-eabi/4.9.3/armv7e-m/softfp\libgcc.a(_arm_addsubdf3.o)
 .data          0x00000000        0x0 c:/siliconlabs/simplicitystudio/v4/developer/toolchains/gnu_arm/4.9_2015q3/bin/../lib/gcc/arm-none-eabi/4.9.3/armv7e-m/softfp\libgcc.a(_arm_muldivdf3.o)
 .bss           0x00000000        0x0 c:/siliconlabs/simplicitystudio/v4/developer/toolchains/gnu_arm/4.9_2015q3/bin/../lib/gcc/arm-none-eabi/4.9.3/armv7e-m/softfp\libgcc.a(_arm_muldivdf3.o)
 .data          0x00000000        0x0 c:/siliconlabs/simplicitystudio/v4/developer/toolchains/gnu_arm/4.9_2015q3/bin/../lib/gcc/arm-none-eabi/4.9.3/armv7e-m/softfp\libgcc.a(_arm_cmpdf2.o)
 .bss           0x00000000        0x0 c:/siliconlabs/simplicitystudio/v4/developer/toolchains/gnu_arm/4.9_2015q3/bin/../lib/gcc/arm-none-eabi/4.9.3/armv7e-m/softfp\libgcc.a(_arm_cmpdf2.o)
 .data          0x00000000        0x0 c:/siliconlabs/simplicitystudio/v4/developer/toolchains/gnu_arm/4.9_2015q3/bin/../lib/gcc/arm-none-eabi/4.9.3/armv7e-m/softfp\libgcc.a(_aeabi_ldivmod.o)
 .bss           0x00000000        0x0 c:/siliconlabs/simplicitystudio/v4/developer/toolchains/gnu_arm/4.9_2015q3/bin/../lib/gcc/arm-none-eabi/4.9.3/armv7e-m/softfp\libgcc.a(_aeabi_ldivmod.o)
 .data          0x00000000        0x0 c:/siliconlabs/simplicitystudio/v4/developer/toolchains/gnu_arm/4.9_2015q3/bin/../lib/gcc/arm-none-eabi/4.9.3/armv7e-m/softfp\libgcc.a(_aeabi_uldivmod.o)
 .bss           0x00000000        0x0 c:/siliconlabs/simplicitystudio/v4/developer/toolchains/gnu_arm/4.9_2015q3/bin/../lib/gcc/arm-none-eabi/4.9.3/armv7e-m/softfp\libgcc.a(_aeabi_uldivmod.o)
 .data          0x00000000        0x0 c:/siliconlabs/simplicitystudio/v4/developer/toolchains/gnu_arm/4.9_2015q3/bin/../lib/gcc/arm-none-eabi/4.9.3/armv7e-m/softfp\libgcc.a(bpabi.o)
 .bss           0x00000000        0x0 c:/siliconlabs/simplicitystudio/v4/developer/toolchains/gnu_arm/4.9_2015q3/bin/../lib/gcc/arm-none-eabi/4.9.3/armv7e-m/softfp\libgcc.a(bpabi.o)
 .data          0x00000000        0x0 c:/siliconlabs/simplicitystudio/v4/developer/toolchains/gnu_arm/4.9_2015q3/bin/../lib/gcc/arm-none-eabi/4.9.3/armv7e-m/softfp\libgcc.a(_dvmd_tls.o)
 .bss           0x00000000        0x0 c:/siliconlabs/simplicitystudio/v4/developer/toolchains/gnu_arm/4.9_2015q3/bin/../lib/gcc/arm-none-eabi/4.9.3/armv7e-m/softfp\libgcc.a(_dvmd_tls.o)
 .data          0x00000000        0x0 c:/siliconlabs/simplicitystudio/v4/developer/toolchains/gnu_arm/4.9_2015q3/bin/../lib/gcc/arm-none-eabi/4.9.3/armv7e-m/softfp\libgcc.a(_divdi3.o)
 .bss           0x00000000        0x0 c:/siliconlabs/simplicitystudio/v4/developer/toolchains/gnu_arm/4.9_2015q3/bin/../lib/gcc/arm-none-eabi/4.9.3/armv7e-m/softfp\libgcc.a(_divdi3.o)
 .ARM.extab     0x00000000        0x0 c:/siliconlabs/simplicitystudio/v4/developer/toolchains/gnu_arm/4.9_2015q3/bin/../lib/gcc/arm-none-eabi/4.9.3/armv7e-m/softfp\libgcc.a(_divdi3.o)
 .data          0x00000000        0x0 c:/siliconlabs/simplicitystudio/v4/developer/toolchains/gnu_arm/4.9_2015q3/bin/../lib/gcc/arm-none-eabi/4.9.3/armv7e-m/softfp\libgcc.a(_udivdi3.o)
 .bss           0x00000000        0x0 c:/siliconlabs/simplicitystudio/v4/developer/toolchains/gnu_arm/4.9_2015q3/bin/../lib/gcc/arm-none-eabi/4.9.3/armv7e-m/softfp\libgcc.a(_udivdi3.o)
 .ARM.extab     0x00000000        0x0 c:/siliconlabs/simplicitystudio/v4/developer/toolchains/gnu_arm/4.9_2015q3/bin/../lib/gcc/arm-none-eabi/4.9.3/armv7e-m/softfp\libgcc.a(_udivdi3.o)
 .text          0x00000000        0x0 c:/siliconlabs/simplicitystudio/v4/developer/toolchains/gnu_arm/4.9_2015q3/bin/../lib/gcc/arm-none-eabi/4.9.3/../../../../arm-none-eabi/lib/armv7e-m/softfp\libc.a(lib_a-errno.o)
 .data          0x00000000        0x0 c:/siliconlabs/simplicitystudio/v4/developer/toolchains/gnu_arm/4.9_2015q3/bin/../lib/gcc/arm-none-eabi/4.9.3/../../../../arm-none-eabi/lib/armv7e-m/softfp\libc.a(lib_a-errno.o)
 .bss           0x00000000        0x0 c:/siliconlabs/simplicitystudio/v4/developer/toolchains/gnu_arm/4.9_2015q3/bin/../lib/gcc/arm-none-eabi/4.9.3/../../../../arm-none-eabi/lib/armv7e-m/softfp\libc.a(lib_a-errno.o)
 .text          0x00000000        0x0 c:/siliconlabs/simplicitystudio/v4/developer/toolchains/gnu_arm/4.9_2015q3/bin/../lib/gcc/arm-none-eabi/4.9.3/../../../../arm-none-eabi/lib/armv7e-m/softfp\libc.a(lib_a-exit.o)
 .data          0x00000000        0x0 c:/siliconlabs/simplicitystudio/v4/developer/toolchains/gnu_arm/4.9_2015q3/bin/../lib/gcc/arm-none-eabi/4.9.3/../../../../arm-none-eabi/lib/armv7e-m/softfp\libc.a(lib_a-exit.o)
 .bss           0x00000000        0x0 c:/siliconlabs/simplicitystudio/v4/developer/toolchains/gnu_arm/4.9_2015q3/bin/../lib/gcc/arm-none-eabi/4.9.3/../../../../arm-none-eabi/lib/armv7e-m/softfp\libc.a(lib_a-exit.o)
 .text          0x00000000        0x0 c:/siliconlabs/simplicitystudio/v4/developer/toolchains/gnu_arm/4.9_2015q3/bin/../lib/gcc/arm-none-eabi/4.9.3/../../../../arm-none-eabi/lib/armv7e-m/softfp\libc.a(lib_a-impure.o)
 .data          0x00000000        0x0 c:/siliconlabs/simplicitystudio/v4/developer/toolchains/gnu_arm/4.9_2015q3/bin/../lib/gcc/arm-none-eabi/4.9.3/../../../../arm-none-eabi/lib/armv7e-m/softfp\libc.a(lib_a-impure.o)
 .bss           0x00000000        0x0 c:/siliconlabs/simplicitystudio/v4/developer/toolchains/gnu_arm/4.9_2015q3/bin/../lib/gcc/arm-none-eabi/4.9.3/../../../../arm-none-eabi/lib/armv7e-m/softfp\libc.a(lib_a-impure.o)
 .text          0x00000000        0x0 c:/siliconlabs/simplicitystudio/v4/developer/toolchains/gnu_arm/4.9_2015q3/bin/../lib/gcc/arm-none-eabi/4.9.3/../../../../arm-none-eabi/lib/armv7e-m/softfp\libc.a(lib_a-init.o)
 .data          0x00000000        0x0 c:/siliconlabs/simplicitystudio/v4/developer/toolchains/gnu_arm/4.9_2015q3/bin/../lib/gcc/arm-none-eabi/4.9.3/../../../../arm-none-eabi/lib/armv7e-m/softfp\libc.a(lib_a-init.o)
 .bss           0x00000000        0x0 c:/siliconlabs/simplicitystudio/v4/developer/toolchains/gnu_arm/4.9_2015q3/bin/../lib/gcc/arm-none-eabi/4.9.3/../../../../arm-none-eabi/lib/armv7e-m/softfp\libc.a(lib_a-init.o)
 .text          0x00000000        0x0 c:/siliconlabs/simplicitystudio/v4/developer/toolchains/gnu_arm/4.9_2015q3/bin/../lib/gcc/arm-none-eabi/4.9.3/../../../../arm-none-eabi/lib/armv7e-m/softfp\libc.a(lib_a-malloc.o)
 .data          0x00000000        0x0 c:/siliconlabs/simplicitystudio/v4/developer/toolchains/gnu_arm/4.9_2015q3/bin/../lib/gcc/arm-none-eabi/4.9.3/../../../../arm-none-eabi/lib/armv7e-m/softfp\libc.a(lib_a-malloc.o)
 .bss           0x00000000        0x0 c:/siliconlabs/simplicitystudio/v4/developer/toolchains/gnu_arm/4.9_2015q3/bin/../lib/gcc/arm-none-eabi/4.9.3/../../../../arm-none-eabi/lib/armv7e-m/softfp\libc.a(lib_a-malloc.o)
 .text          0x00000000        0x0 c:/siliconlabs/simplicitystudio/v4/developer/toolchains/gnu_arm/4.9_2015q3/bin/../lib/gcc/arm-none-eabi/4.9.3/../../../../arm-none-eabi/lib/armv7e-m/softfp\libc.a(lib_a-mallocr.o)
 .data          0x00000000        0x0 c:/siliconlabs/simplicitystudio/v4/developer/toolchains/gnu_arm/4.9_2015q3/bin/../lib/gcc/arm-none-eabi/4.9.3/../../../../arm-none-eabi/lib/armv7e-m/softfp\libc.a(lib_a-mallocr.o)
 .bss           0x00000000        0x0 c:/siliconlabs/simplicitystudio/v4/developer/toolchains/gnu_arm/4.9_2015q3/bin/../lib/gcc/arm-none-eabi/4.9.3/../../../../arm-none-eabi/lib/armv7e-m/softfp\libc.a(lib_a-mallocr.o)
 .text          0x00000000        0x0 c:/siliconlabs/simplicitystudio/v4/developer/toolchains/gnu_arm/4.9_2015q3/bin/../lib/gcc/arm-none-eabi/4.9.3/../../../../arm-none-eabi/lib/armv7e-m/softfp\libc.a(lib_a-memcmp.o)
 .data          0x00000000        0x0 c:/siliconlabs/simplicitystudio/v4/developer/toolchains/gnu_arm/4.9_2015q3/bin/../lib/gcc/arm-none-eabi/4.9.3/../../../../arm-none-eabi/lib/armv7e-m/softfp\libc.a(lib_a-memcmp.o)
 .bss           0x00000000        0x0 c:/siliconlabs/simplicitystudio/v4/developer/toolchains/gnu_arm/4.9_2015q3/bin/../lib/gcc/arm-none-eabi/4.9.3/../../../../arm-none-eabi/lib/armv7e-m/softfp\libc.a(lib_a-memcmp.o)
 .data          0x00000000        0x0 c:/siliconlabs/simplicitystudio/v4/developer/toolchains/gnu_arm/4.9_2015q3/bin/../lib/gcc/arm-none-eabi/4.9.3/../../../../arm-none-eabi/lib/armv7e-m/softfp\libc.a(lib_a-memcpy.o)
 .bss           0x00000000        0x0 c:/siliconlabs/simplicitystudio/v4/developer/toolchains/gnu_arm/4.9_2015q3/bin/../lib/gcc/arm-none-eabi/4.9.3/../../../../arm-none-eabi/lib/armv7e-m/softfp\libc.a(lib_a-memcpy.o)
 .text          0x00000000        0x0 c:/siliconlabs/simplicitystudio/v4/developer/toolchains/gnu_arm/4.9_2015q3/bin/../lib/gcc/arm-none-eabi/4.9.3/../../../../arm-none-eabi/lib/armv7e-m/softfp\libc.a(lib_a-memmove.o)
 .data          0x00000000        0x0 c:/siliconlabs/simplicitystudio/v4/developer/toolchains/gnu_arm/4.9_2015q3/bin/../lib/gcc/arm-none-eabi/4.9.3/../../../../arm-none-eabi/lib/armv7e-m/softfp\libc.a(lib_a-memmove.o)
 .bss           0x00000000        0x0 c:/siliconlabs/simplicitystudio/v4/developer/toolchains/gnu_arm/4.9_2015q3/bin/../lib/gcc/arm-none-eabi/4.9.3/../../../../arm-none-eabi/lib/armv7e-m/softfp\libc.a(lib_a-memmove.o)
 .text          0x00000000        0x0 c:/siliconlabs/simplicitystudio/v4/developer/toolchains/gnu_arm/4.9_2015q3/bin/../lib/gcc/arm-none-eabi/4.9.3/../../../../arm-none-eabi/lib/armv7e-m/softfp\libc.a(lib_a-memset.o)
 .data          0x00000000        0x0 c:/siliconlabs/simplicitystudio/v4/developer/toolchains/gnu_arm/4.9_2015q3/bin/../lib/gcc/arm-none-eabi/4.9.3/../../../../arm-none-eabi/lib/armv7e-m/softfp\libc.a(lib_a-memset.o)
 .bss           0x00000000        0x0 c:/siliconlabs/simplicitystudio/v4/developer/toolchains/gnu_arm/4.9_2015q3/bin/../lib/gcc/arm-none-eabi/4.9.3/../../../../arm-none-eabi/lib/armv7e-m/softfp\libc.a(lib_a-memset.o)
 .text          0x00000000        0x0 c:/siliconlabs/simplicitystudio/v4/developer/toolchains/gnu_arm/4.9_2015q3/bin/../lib/gcc/arm-none-eabi/4.9.3/../../../../arm-none-eabi/lib/armv7e-m/softfp\libc.a(lib_a-mlock.o)
 .data          0x00000000        0x0 c:/siliconlabs/simplicitystudio/v4/developer/toolchains/gnu_arm/4.9_2015q3/bin/../lib/gcc/arm-none-eabi/4.9.3/../../../../arm-none-eabi/lib/armv7e-m/softfp\libc.a(lib_a-mlock.o)
 .bss           0x00000000        0x0 c:/siliconlabs/simplicitystudio/v4/developer/toolchains/gnu_arm/4.9_2015q3/bin/../lib/gcc/arm-none-eabi/4.9.3/../../../../arm-none-eabi/lib/armv7e-m/softfp\libc.a(lib_a-mlock.o)
 .text          0x00000000        0x0 c:/siliconlabs/simplicitystudio/v4/developer/toolchains/gnu_arm/4.9_2015q3/bin/../lib/gcc/arm-none-eabi/4.9.3/../../../../arm-none-eabi/lib/armv7e-m/softfp\libc.a(lib_a-printf.o)
 .data          0x00000000        0x0 c:/siliconlabs/simplicitystudio/v4/developer/toolchains/gnu_arm/4.9_2015q3/bin/../lib/gcc/arm-none-eabi/4.9.3/../../../../arm-none-eabi/lib/armv7e-m/softfp\libc.a(lib_a-printf.o)
 .bss           0x00000000        0x0 c:/siliconlabs/simplicitystudio/v4/developer/toolchains/gnu_arm/4.9_2015q3/bin/../lib/gcc/arm-none-eabi/4.9.3/../../../../arm-none-eabi/lib/armv7e-m/softfp\libc.a(lib_a-printf.o)
 .text._printf_r
                0x00000000       0x20 c:/siliconlabs/simplicitystudio/v4/developer/toolchains/gnu_arm/4.9_2015q3/bin/../lib/gcc/arm-none-eabi/4.9.3/../../../../arm-none-eabi/lib/armv7e-m/softfp\libc.a(lib_a-printf.o)
 .text          0x00000000        0x0 c:/siliconlabs/simplicitystudio/v4/developer/toolchains/gnu_arm/4.9_2015q3/bin/../lib/gcc/arm-none-eabi/4.9.3/../../../../arm-none-eabi/lib/armv7e-m/softfp\libc.a(lib_a-sbrkr.o)
 .data          0x00000000        0x0 c:/siliconlabs/simplicitystudio/v4/developer/toolchains/gnu_arm/4.9_2015q3/bin/../lib/gcc/arm-none-eabi/4.9.3/../../../../arm-none-eabi/lib/armv7e-m/softfp\libc.a(lib_a-sbrkr.o)
 .bss           0x00000000        0x0 c:/siliconlabs/simplicitystudio/v4/developer/toolchains/gnu_arm/4.9_2015q3/bin/../lib/gcc/arm-none-eabi/4.9.3/../../../../arm-none-eabi/lib/armv7e-m/softfp\libc.a(lib_a-sbrkr.o)
 .text          0x00000000        0x0 c:/siliconlabs/simplicitystudio/v4/developer/toolchains/gnu_arm/4.9_2015q3/bin/../lib/gcc/arm-none-eabi/4.9.3/../../../../arm-none-eabi/lib/armv7e-m/softfp\libc.a(lib_a-setvbuf.o)
 .data          0x00000000        0x0 c:/siliconlabs/simplicitystudio/v4/developer/toolchains/gnu_arm/4.9_2015q3/bin/../lib/gcc/arm-none-eabi/4.9.3/../../../../arm-none-eabi/lib/armv7e-m/softfp\libc.a(lib_a-setvbuf.o)
 .bss           0x00000000        0x0 c:/siliconlabs/simplicitystudio/v4/developer/toolchains/gnu_arm/4.9_2015q3/bin/../lib/gcc/arm-none-eabi/4.9.3/../../../../arm-none-eabi/lib/armv7e-m/softfp\libc.a(lib_a-setvbuf.o)
 .text          0x00000000        0x0 c:/siliconlabs/simplicitystudio/v4/developer/toolchains/gnu_arm/4.9_2015q3/bin/../lib/gcc/arm-none-eabi/4.9.3/../../../../arm-none-eabi/lib/armv7e-m/softfp\libc.a(lib_a-sprintf.o)
 .data          0x00000000        0x0 c:/siliconlabs/simplicitystudio/v4/developer/toolchains/gnu_arm/4.9_2015q3/bin/../lib/gcc/arm-none-eabi/4.9.3/../../../../arm-none-eabi/lib/armv7e-m/softfp\libc.a(lib_a-sprintf.o)
 .bss           0x00000000        0x0 c:/siliconlabs/simplicitystudio/v4/developer/toolchains/gnu_arm/4.9_2015q3/bin/../lib/gcc/arm-none-eabi/4.9.3/../../../../arm-none-eabi/lib/armv7e-m/softfp\libc.a(lib_a-sprintf.o)
 .text._sprintf_r
                0x00000000       0x44 c:/siliconlabs/simplicitystudio/v4/developer/toolchains/gnu_arm/4.9_2015q3/bin/../lib/gcc/arm-none-eabi/4.9.3/../../../../arm-none-eabi/lib/armv7e-m/softfp\libc.a(lib_a-sprintf.o)
 .text          0x00000000        0x0 c:/siliconlabs/simplicitystudio/v4/developer/toolchains/gnu_arm/4.9_2015q3/bin/../lib/gcc/arm-none-eabi/4.9.3/../../../../arm-none-eabi/lib/armv7e-m/softfp\libc.a(lib_a-strcat.o)
 .data          0x00000000        0x0 c:/siliconlabs/simplicitystudio/v4/developer/toolchains/gnu_arm/4.9_2015q3/bin/../lib/gcc/arm-none-eabi/4.9.3/../../../../arm-none-eabi/lib/armv7e-m/softfp\libc.a(lib_a-strcat.o)
 .bss           0x00000000        0x0 c:/siliconlabs/simplicitystudio/v4/developer/toolchains/gnu_arm/4.9_2015q3/bin/../lib/gcc/arm-none-eabi/4.9.3/../../../../arm-none-eabi/lib/armv7e-m/softfp\libc.a(lib_a-strcat.o)
 .data          0x00000000        0x0 c:/siliconlabs/simplicitystudio/v4/developer/toolchains/gnu_arm/4.9_2015q3/bin/../lib/gcc/arm-none-eabi/4.9.3/../../../../arm-none-eabi/lib/armv7e-m/softfp\libc.a(lib_a-strcmp.o)
 .bss           0x00000000        0x0 c:/siliconlabs/simplicitystudio/v4/developer/toolchains/gnu_arm/4.9_2015q3/bin/../lib/gcc/arm-none-eabi/4.9.3/../../../../arm-none-eabi/lib/armv7e-m/softfp\libc.a(lib_a-strcmp.o)
 .text          0x00000000        0x0 c:/siliconlabs/simplicitystudio/v4/developer/toolchains/gnu_arm/4.9_2015q3/bin/../lib/gcc/arm-none-eabi/4.9.3/../../../../arm-none-eabi/lib/armv7e-m/softfp\libc.a(lib_a-strcpy.o)
 .data          0x00000000        0x0 c:/siliconlabs/simplicitystudio/v4/developer/toolchains/gnu_arm/4.9_2015q3/bin/../lib/gcc/arm-none-eabi/4.9.3/../../../../arm-none-eabi/lib/armv7e-m/softfp\libc.a(lib_a-strcpy.o)
 .bss           0x00000000        0x0 c:/siliconlabs/simplicitystudio/v4/developer/toolchains/gnu_arm/4.9_2015q3/bin/../lib/gcc/arm-none-eabi/4.9.3/../../../../arm-none-eabi/lib/armv7e-m/softfp\libc.a(lib_a-strcpy.o)
 .text          0x00000000        0x0 c:/siliconlabs/simplicitystudio/v4/developer/toolchains/gnu_arm/4.9_2015q3/bin/../lib/gcc/arm-none-eabi/4.9.3/../../../../arm-none-eabi/lib/armv7e-m/softfp\libc.a(lib_a-strlen.o)
 .data          0x00000000        0x0 c:/siliconlabs/simplicitystudio/v4/developer/toolchains/gnu_arm/4.9_2015q3/bin/../lib/gcc/arm-none-eabi/4.9.3/../../../../arm-none-eabi/lib/armv7e-m/softfp\libc.a(lib_a-strlen.o)
 .bss           0x00000000        0x0 c:/siliconlabs/simplicitystudio/v4/developer/toolchains/gnu_arm/4.9_2015q3/bin/../lib/gcc/arm-none-eabi/4.9.3/../../../../arm-none-eabi/lib/armv7e-m/softfp\libc.a(lib_a-strlen.o)
 .text          0x00000000        0x0 c:/siliconlabs/simplicitystudio/v4/developer/toolchains/gnu_arm/4.9_2015q3/bin/../lib/gcc/arm-none-eabi/4.9.3/../../../../arm-none-eabi/lib/armv7e-m/softfp\libc.a(lib_a-svfprintf.o)
 .data          0x00000000        0x0 c:/siliconlabs/simplicitystudio/v4/developer/toolchains/gnu_arm/4.9_2015q3/bin/../lib/gcc/arm-none-eabi/4.9.3/../../../../arm-none-eabi/lib/armv7e-m/softfp\libc.a(lib_a-svfprintf.o)
 .bss           0x00000000        0x0 c:/siliconlabs/simplicitystudio/v4/developer/toolchains/gnu_arm/4.9_2015q3/bin/../lib/gcc/arm-none-eabi/4.9.3/../../../../arm-none-eabi/lib/armv7e-m/softfp\libc.a(lib_a-svfprintf.o)
 .text          0x00000000        0x0 c:/siliconlabs/simplicitystudio/v4/developer/toolchains/gnu_arm/4.9_2015q3/bin/../lib/gcc/arm-none-eabi/4.9.3/../../../../arm-none-eabi/lib/armv7e-m/softfp\libc.a(lib_a-vfprintf.o)
 .data          0x00000000        0x0 c:/siliconlabs/simplicitystudio/v4/developer/toolchains/gnu_arm/4.9_2015q3/bin/../lib/gcc/arm-none-eabi/4.9.3/../../../../arm-none-eabi/lib/armv7e-m/softfp\libc.a(lib_a-vfprintf.o)
 .bss           0x00000000        0x0 c:/siliconlabs/simplicitystudio/v4/developer/toolchains/gnu_arm/4.9_2015q3/bin/../lib/gcc/arm-none-eabi/4.9.3/../../../../arm-none-eabi/lib/armv7e-m/softfp\libc.a(lib_a-vfprintf.o)
 .text.vfprintf
                0x00000000       0x18 c:/siliconlabs/simplicitystudio/v4/developer/toolchains/gnu_arm/4.9_2015q3/bin/../lib/gcc/arm-none-eabi/4.9.3/../../../../arm-none-eabi/lib/armv7e-m/softfp\libc.a(lib_a-vfprintf.o)
 .text          0x00000000        0x0 c:/siliconlabs/simplicitystudio/v4/developer/toolchains/gnu_arm/4.9_2015q3/bin/../lib/gcc/arm-none-eabi/4.9.3/../../../../arm-none-eabi/lib/armv7e-m/softfp\libc.a(lib_a-wsetup.o)
 .data          0x00000000        0x0 c:/siliconlabs/simplicitystudio/v4/developer/toolchains/gnu_arm/4.9_2015q3/bin/../lib/gcc/arm-none-eabi/4.9.3/../../../../arm-none-eabi/lib/armv7e-m/softfp\libc.a(lib_a-wsetup.o)
 .bss           0x00000000        0x0 c:/siliconlabs/simplicitystudio/v4/developer/toolchains/gnu_arm/4.9_2015q3/bin/../lib/gcc/arm-none-eabi/4.9.3/../../../../arm-none-eabi/lib/armv7e-m/softfp\libc.a(lib_a-wsetup.o)
 .text          0x00000000        0x0 c:/siliconlabs/simplicitystudio/v4/developer/toolchains/gnu_arm/4.9_2015q3/bin/../lib/gcc/arm-none-eabi/4.9.3/../../../../arm-none-eabi/lib/armv7e-m/softfp\libc.a(lib_a-__call_atexit.o)
 .data          0x00000000        0x0 c:/siliconlabs/simplicitystudio/v4/developer/toolchains/gnu_arm/4.9_2015q3/bin/../lib/gcc/arm-none-eabi/4.9.3/../../../../arm-none-eabi/lib/armv7e-m/softfp\libc.a(lib_a-__call_atexit.o)
 .bss           0x00000000        0x0 c:/siliconlabs/simplicitystudio/v4/developer/toolchains/gnu_arm/4.9_2015q3/bin/../lib/gcc/arm-none-eabi/4.9.3/../../../../arm-none-eabi/lib/armv7e-m/softfp\libc.a(lib_a-__call_atexit.o)
 .text          0x00000000        0x0 c:/siliconlabs/simplicitystudio/v4/developer/toolchains/gnu_arm/4.9_2015q3/bin/../lib/gcc/arm-none-eabi/4.9.3/../../../../arm-none-eabi/lib/armv7e-m/softfp\libc.a(lib_a-atexit.o)
 .data          0x00000000        0x0 c:/siliconlabs/simplicitystudio/v4/developer/toolchains/gnu_arm/4.9_2015q3/bin/../lib/gcc/arm-none-eabi/4.9.3/../../../../arm-none-eabi/lib/armv7e-m/softfp\libc.a(lib_a-atexit.o)
 .bss           0x00000000        0x0 c:/siliconlabs/simplicitystudio/v4/developer/toolchains/gnu_arm/4.9_2015q3/bin/../lib/gcc/arm-none-eabi/4.9.3/../../../../arm-none-eabi/lib/armv7e-m/softfp\libc.a(lib_a-atexit.o)
 .text          0x00000000        0x0 c:/siliconlabs/simplicitystudio/v4/developer/toolchains/gnu_arm/4.9_2015q3/bin/../lib/gcc/arm-none-eabi/4.9.3/../../../../arm-none-eabi/lib/armv7e-m/softfp\libc.a(lib_a-dtoa.o)
 .data          0x00000000        0x0 c:/siliconlabs/simplicitystudio/v4/developer/toolchains/gnu_arm/4.9_2015q3/bin/../lib/gcc/arm-none-eabi/4.9.3/../../../../arm-none-eabi/lib/armv7e-m/softfp\libc.a(lib_a-dtoa.o)
 .bss           0x00000000        0x0 c:/siliconlabs/simplicitystudio/v4/developer/toolchains/gnu_arm/4.9_2015q3/bin/../lib/gcc/arm-none-eabi/4.9.3/../../../../arm-none-eabi/lib/armv7e-m/softfp\libc.a(lib_a-dtoa.o)
 .text          0x00000000        0x0 c:/siliconlabs/simplicitystudio/v4/developer/toolchains/gnu_arm/4.9_2015q3/bin/../lib/gcc/arm-none-eabi/4.9.3/../../../../arm-none-eabi/lib/armv7e-m/softfp\libc.a(lib_a-fflush.o)
 .data          0x00000000        0x0 c:/siliconlabs/simplicitystudio/v4/developer/toolchains/gnu_arm/4.9_2015q3/bin/../lib/gcc/arm-none-eabi/4.9.3/../../../../arm-none-eabi/lib/armv7e-m/softfp\libc.a(lib_a-fflush.o)
 .bss           0x00000000        0x0 c:/siliconlabs/simplicitystudio/v4/developer/toolchains/gnu_arm/4.9_2015q3/bin/../lib/gcc/arm-none-eabi/4.9.3/../../../../arm-none-eabi/lib/armv7e-m/softfp\libc.a(lib_a-fflush.o)
 .text.fflush   0x00000000       0x24 c:/siliconlabs/simplicitystudio/v4/developer/toolchains/gnu_arm/4.9_2015q3/bin/../lib/gcc/arm-none-eabi/4.9.3/../../../../arm-none-eabi/lib/armv7e-m/softfp\libc.a(lib_a-fflush.o)
 .text          0x00000000        0x0 c:/siliconlabs/simplicitystudio/v4/developer/toolchains/gnu_arm/4.9_2015q3/bin/../lib/gcc/arm-none-eabi/4.9.3/../../../../arm-none-eabi/lib/armv7e-m/softfp\libc.a(lib_a-findfp.o)
 .data          0x00000000        0x0 c:/siliconlabs/simplicitystudio/v4/developer/toolchains/gnu_arm/4.9_2015q3/bin/../lib/gcc/arm-none-eabi/4.9.3/../../../../arm-none-eabi/lib/armv7e-m/softfp\libc.a(lib_a-findfp.o)
 .bss           0x00000000        0x0 c:/siliconlabs/simplicitystudio/v4/developer/toolchains/gnu_arm/4.9_2015q3/bin/../lib/gcc/arm-none-eabi/4.9.3/../../../../arm-none-eabi/lib/armv7e-m/softfp\libc.a(lib_a-findfp.o)
 .text.__fp_lock
                0x00000000        0x4 c:/siliconlabs/simplicitystudio/v4/developer/toolchains/gnu_arm/4.9_2015q3/bin/../lib/gcc/arm-none-eabi/4.9.3/../../../../arm-none-eabi/lib/armv7e-m/softfp\libc.a(lib_a-findfp.o)
 .text.__fp_unlock
                0x00000000        0x4 c:/siliconlabs/simplicitystudio/v4/developer/toolchains/gnu_arm/4.9_2015q3/bin/../lib/gcc/arm-none-eabi/4.9.3/../../../../arm-none-eabi/lib/armv7e-m/softfp\libc.a(lib_a-findfp.o)
 .text.__sfmoreglue
                0x00000000       0x30 c:/siliconlabs/simplicitystudio/v4/developer/toolchains/gnu_arm/4.9_2015q3/bin/../lib/gcc/arm-none-eabi/4.9.3/../../../../arm-none-eabi/lib/armv7e-m/softfp\libc.a(lib_a-findfp.o)
 .text.__sfp    0x00000000       0x88 c:/siliconlabs/simplicitystudio/v4/developer/toolchains/gnu_arm/4.9_2015q3/bin/../lib/gcc/arm-none-eabi/4.9.3/../../../../arm-none-eabi/lib/armv7e-m/softfp\libc.a(lib_a-findfp.o)
 .text._cleanup
                0x00000000       0x14 c:/siliconlabs/simplicitystudio/v4/developer/toolchains/gnu_arm/4.9_2015q3/bin/../lib/gcc/arm-none-eabi/4.9.3/../../../../arm-none-eabi/lib/armv7e-m/softfp\libc.a(lib_a-findfp.o)
 .text.__sinit_lock_acquire
                0x00000000        0x4 c:/siliconlabs/simplicitystudio/v4/developer/toolchains/gnu_arm/4.9_2015q3/bin/../lib/gcc/arm-none-eabi/4.9.3/../../../../arm-none-eabi/lib/armv7e-m/softfp\libc.a(lib_a-findfp.o)
 .text.__sinit_lock_release
                0x00000000        0x4 c:/siliconlabs/simplicitystudio/v4/developer/toolchains/gnu_arm/4.9_2015q3/bin/../lib/gcc/arm-none-eabi/4.9.3/../../../../arm-none-eabi/lib/armv7e-m/softfp\libc.a(lib_a-findfp.o)
 .text.__fp_lock_all
                0x00000000       0x14 c:/siliconlabs/simplicitystudio/v4/developer/toolchains/gnu_arm/4.9_2015q3/bin/../lib/gcc/arm-none-eabi/4.9.3/../../../../arm-none-eabi/lib/armv7e-m/softfp\libc.a(lib_a-findfp.o)
 .text.__fp_unlock_all
                0x00000000       0x14 c:/siliconlabs/simplicitystudio/v4/developer/toolchains/gnu_arm/4.9_2015q3/bin/../lib/gcc/arm-none-eabi/4.9.3/../../../../arm-none-eabi/lib/armv7e-m/softfp\libc.a(lib_a-findfp.o)
 .text          0x00000000        0x0 c:/siliconlabs/simplicitystudio/v4/developer/toolchains/gnu_arm/4.9_2015q3/bin/../lib/gcc/arm-none-eabi/4.9.3/../../../../arm-none-eabi/lib/armv7e-m/softfp\libc.a(lib_a-fini.o)
 .data          0x00000000        0x0 c:/siliconlabs/simplicitystudio/v4/developer/toolchains/gnu_arm/4.9_2015q3/bin/../lib/gcc/arm-none-eabi/4.9.3/../../../../arm-none-eabi/lib/armv7e-m/softfp\libc.a(lib_a-fini.o)
 .bss           0x00000000        0x0 c:/siliconlabs/simplicitystudio/v4/developer/toolchains/gnu_arm/4.9_2015q3/bin/../lib/gcc/arm-none-eabi/4.9.3/../../../../arm-none-eabi/lib/armv7e-m/softfp\libc.a(lib_a-fini.o)
 .text          0x00000000        0x0 c:/siliconlabs/simplicitystudio/v4/developer/toolchains/gnu_arm/4.9_2015q3/bin/../lib/gcc/arm-none-eabi/4.9.3/../../../../arm-none-eabi/lib/armv7e-m/softfp\libc.a(lib_a-freer.o)
 .data          0x00000000        0x0 c:/siliconlabs/simplicitystudio/v4/developer/toolchains/gnu_arm/4.9_2015q3/bin/../lib/gcc/arm-none-eabi/4.9.3/../../../../arm-none-eabi/lib/armv7e-m/softfp\libc.a(lib_a-freer.o)
 .bss           0x00000000        0x0 c:/siliconlabs/simplicitystudio/v4/developer/toolchains/gnu_arm/4.9_2015q3/bin/../lib/gcc/arm-none-eabi/4.9.3/../../../../arm-none-eabi/lib/armv7e-m/softfp\libc.a(lib_a-freer.o)
 .text          0x00000000        0x0 c:/siliconlabs/simplicitystudio/v4/developer/toolchains/gnu_arm/4.9_2015q3/bin/../lib/gcc/arm-none-eabi/4.9.3/../../../../arm-none-eabi/lib/armv7e-m/softfp\libc.a(lib_a-fwalk.o)
 .data          0x00000000        0x0 c:/siliconlabs/simplicitystudio/v4/developer/toolchains/gnu_arm/4.9_2015q3/bin/../lib/gcc/arm-none-eabi/4.9.3/../../../../arm-none-eabi/lib/armv7e-m/softfp\libc.a(lib_a-fwalk.o)
 .bss           0x00000000        0x0 c:/siliconlabs/simplicitystudio/v4/developer/toolchains/gnu_arm/4.9_2015q3/bin/../lib/gcc/arm-none-eabi/4.9.3/../../../../arm-none-eabi/lib/armv7e-m/softfp\libc.a(lib_a-fwalk.o)
 .text._fwalk   0x00000000       0x4c c:/siliconlabs/simplicitystudio/v4/developer/toolchains/gnu_arm/4.9_2015q3/bin/../lib/gcc/arm-none-eabi/4.9.3/../../../../arm-none-eabi/lib/armv7e-m/softfp\libc.a(lib_a-fwalk.o)
 .text          0x00000000        0x0 c:/siliconlabs/simplicitystudio/v4/developer/toolchains/gnu_arm/4.9_2015q3/bin/../lib/gcc/arm-none-eabi/4.9.3/../../../../arm-none-eabi/lib/armv7e-m/softfp\libc.a(lib_a-locale.o)
 .data          0x00000000        0x0 c:/siliconlabs/simplicitystudio/v4/developer/toolchains/gnu_arm/4.9_2015q3/bin/../lib/gcc/arm-none-eabi/4.9.3/../../../../arm-none-eabi/lib/armv7e-m/softfp\libc.a(lib_a-locale.o)
 .bss           0x00000000        0x0 c:/siliconlabs/simplicitystudio/v4/developer/toolchains/gnu_arm/4.9_2015q3/bin/../lib/gcc/arm-none-eabi/4.9.3/../../../../arm-none-eabi/lib/armv7e-m/softfp\libc.a(lib_a-locale.o)
 .text._setlocale_r
                0x00000000       0x44 c:/siliconlabs/simplicitystudio/v4/developer/toolchains/gnu_arm/4.9_2015q3/bin/../lib/gcc/arm-none-eabi/4.9.3/../../../../arm-none-eabi/lib/armv7e-m/softfp\libc.a(lib_a-locale.o)
 .text.__locale_msgcharset
                0x00000000        0x8 c:/siliconlabs/simplicitystudio/v4/developer/toolchains/gnu_arm/4.9_2015q3/bin/../lib/gcc/arm-none-eabi/4.9.3/../../../../arm-none-eabi/lib/armv7e-m/softfp\libc.a(lib_a-locale.o)
 .text.__locale_cjk_lang
                0x00000000        0x4 c:/siliconlabs/simplicitystudio/v4/developer/toolchains/gnu_arm/4.9_2015q3/bin/../lib/gcc/arm-none-eabi/4.9.3/../../../../arm-none-eabi/lib/armv7e-m/softfp\libc.a(lib_a-locale.o)
 .text.setlocale
                0x00000000       0x10 c:/siliconlabs/simplicitystudio/v4/developer/toolchains/gnu_arm/4.9_2015q3/bin/../lib/gcc/arm-none-eabi/4.9.3/../../../../arm-none-eabi/lib/armv7e-m/softfp\libc.a(lib_a-locale.o)
 .text.localeconv
                0x00000000        0x8 c:/siliconlabs/simplicitystudio/v4/developer/toolchains/gnu_arm/4.9_2015q3/bin/../lib/gcc/arm-none-eabi/4.9.3/../../../../arm-none-eabi/lib/armv7e-m/softfp\libc.a(lib_a-locale.o)
 .data.lc_message_charset
                0x00000000       0x20 c:/siliconlabs/simplicitystudio/v4/developer/toolchains/gnu_arm/4.9_2015q3/bin/../lib/gcc/arm-none-eabi/4.9.3/../../../../arm-none-eabi/lib/armv7e-m/softfp\libc.a(lib_a-locale.o)
 .bss._PathLocale
                0x00000000        0x4 c:/siliconlabs/simplicitystudio/v4/developer/toolchains/gnu_arm/4.9_2015q3/bin/../lib/gcc/arm-none-eabi/4.9.3/../../../../arm-none-eabi/lib/armv7e-m/softfp\libc.a(lib_a-locale.o)
 .bss.__nlocale_changed
                0x00000000        0x4 c:/siliconlabs/simplicitystudio/v4/developer/toolchains/gnu_arm/4.9_2015q3/bin/../lib/gcc/arm-none-eabi/4.9.3/../../../../arm-none-eabi/lib/armv7e-m/softfp\libc.a(lib_a-locale.o)
 .bss.__mlocale_changed
                0x00000000        0x4 c:/siliconlabs/simplicitystudio/v4/developer/toolchains/gnu_arm/4.9_2015q3/bin/../lib/gcc/arm-none-eabi/4.9.3/../../../../arm-none-eabi/lib/armv7e-m/softfp\libc.a(lib_a-locale.o)
 .text          0x00000000        0x0 c:/siliconlabs/simplicitystudio/v4/developer/toolchains/gnu_arm/4.9_2015q3/bin/../lib/gcc/arm-none-eabi/4.9.3/../../../../arm-none-eabi/lib/armv7e-m/softfp\libc.a(lib_a-makebuf.o)
 .data          0x00000000        0x0 c:/siliconlabs/simplicitystudio/v4/developer/toolchains/gnu_arm/4.9_2015q3/bin/../lib/gcc/arm-none-eabi/4.9.3/../../../../arm-none-eabi/lib/armv7e-m/softfp\libc.a(lib_a-makebuf.o)
 .bss           0x00000000        0x0 c:/siliconlabs/simplicitystudio/v4/developer/toolchains/gnu_arm/4.9_2015q3/bin/../lib/gcc/arm-none-eabi/4.9.3/../../../../arm-none-eabi/lib/armv7e-m/softfp\libc.a(lib_a-makebuf.o)
 .text          0x00000000        0x0 c:/siliconlabs/simplicitystudio/v4/developer/toolchains/gnu_arm/4.9_2015q3/bin/../lib/gcc/arm-none-eabi/4.9.3/../../../../arm-none-eabi/lib/armv7e-m/softfp\libc.a(lib_a-memchr.o)
 .data          0x00000000        0x0 c:/siliconlabs/simplicitystudio/v4/developer/toolchains/gnu_arm/4.9_2015q3/bin/../lib/gcc/arm-none-eabi/4.9.3/../../../../arm-none-eabi/lib/armv7e-m/softfp\libc.a(lib_a-memchr.o)
 .bss           0x00000000        0x0 c:/siliconlabs/simplicitystudio/v4/developer/toolchains/gnu_arm/4.9_2015q3/bin/../lib/gcc/arm-none-eabi/4.9.3/../../../../arm-none-eabi/lib/armv7e-m/softfp\libc.a(lib_a-memchr.o)
 .text          0x00000000        0x0 c:/siliconlabs/simplicitystudio/v4/developer/toolchains/gnu_arm/4.9_2015q3/bin/../lib/gcc/arm-none-eabi/4.9.3/../../../../arm-none-eabi/lib/armv7e-m/softfp\libc.a(lib_a-mprec.o)
 .data          0x00000000        0x0 c:/siliconlabs/simplicitystudio/v4/developer/toolchains/gnu_arm/4.9_2015q3/bin/../lib/gcc/arm-none-eabi/4.9.3/../../../../arm-none-eabi/lib/armv7e-m/softfp\libc.a(lib_a-mprec.o)
 .bss           0x00000000        0x0 c:/siliconlabs/simplicitystudio/v4/developer/toolchains/gnu_arm/4.9_2015q3/bin/../lib/gcc/arm-none-eabi/4.9.3/../../../../arm-none-eabi/lib/armv7e-m/softfp\libc.a(lib_a-mprec.o)
 .text.__s2b    0x00000000       0x98 c:/siliconlabs/simplicitystudio/v4/developer/toolchains/gnu_arm/4.9_2015q3/bin/../lib/gcc/arm-none-eabi/4.9.3/../../../../arm-none-eabi/lib/armv7e-m/softfp\libc.a(lib_a-mprec.o)
 .text.__ulp    0x00000000       0x40 c:/siliconlabs/simplicitystudio/v4/developer/toolchains/gnu_arm/4.9_2015q3/bin/../lib/gcc/arm-none-eabi/4.9.3/../../../../arm-none-eabi/lib/armv7e-m/softfp\libc.a(lib_a-mprec.o)
 .text.__b2d    0x00000000       0xc4 c:/siliconlabs/simplicitystudio/v4/developer/toolchains/gnu_arm/4.9_2015q3/bin/../lib/gcc/arm-none-eabi/4.9.3/../../../../arm-none-eabi/lib/armv7e-m/softfp\libc.a(lib_a-mprec.o)
 .text.__ratio  0x00000000       0x58 c:/siliconlabs/simplicitystudio/v4/developer/toolchains/gnu_arm/4.9_2015q3/bin/../lib/gcc/arm-none-eabi/4.9.3/../../../../arm-none-eabi/lib/armv7e-m/softfp\libc.a(lib_a-mprec.o)
 .text._mprec_log10
                0x00000000       0x34 c:/siliconlabs/simplicitystudio/v4/developer/toolchains/gnu_arm/4.9_2015q3/bin/../lib/gcc/arm-none-eabi/4.9.3/../../../../arm-none-eabi/lib/armv7e-m/softfp\libc.a(lib_a-mprec.o)
 .text.__copybits
                0x00000000       0x48 c:/siliconlabs/simplicitystudio/v4/developer/toolchains/gnu_arm/4.9_2015q3/bin/../lib/gcc/arm-none-eabi/4.9.3/../../../../arm-none-eabi/lib/armv7e-m/softfp\libc.a(lib_a-mprec.o)
 .text.__any_on
                0x00000000       0x60 c:/siliconlabs/simplicitystudio/v4/developer/toolchains/gnu_arm/4.9_2015q3/bin/../lib/gcc/arm-none-eabi/4.9.3/../../../../arm-none-eabi/lib/armv7e-m/softfp\libc.a(lib_a-mprec.o)
 .rodata.__mprec_tinytens
                0x00000000       0x28 c:/siliconlabs/simplicitystudio/v4/developer/toolchains/gnu_arm/4.9_2015q3/bin/../lib/gcc/arm-none-eabi/4.9.3/../../../../arm-none-eabi/lib/armv7e-m/softfp\libc.a(lib_a-mprec.o)
 .text          0x00000000        0x0 c:/siliconlabs/simplicitystudio/v4/developer/toolchains/gnu_arm/4.9_2015q3/bin/../lib/gcc/arm-none-eabi/4.9.3/../../../../arm-none-eabi/lib/armv7e-m/softfp\libc.a(lib_a-reent.o)
 .data          0x00000000        0x0 c:/siliconlabs/simplicitystudio/v4/developer/toolchains/gnu_arm/4.9_2015q3/bin/../lib/gcc/arm-none-eabi/4.9.3/../../../../arm-none-eabi/lib/armv7e-m/softfp\libc.a(lib_a-reent.o)
 .bss           0x00000000        0x0 c:/siliconlabs/simplicitystudio/v4/developer/toolchains/gnu_arm/4.9_2015q3/bin/../lib/gcc/arm-none-eabi/4.9.3/../../../../arm-none-eabi/lib/armv7e-m/softfp\libc.a(lib_a-reent.o)
 .text.cleanup_glue
                0x00000000       0x1c c:/siliconlabs/simplicitystudio/v4/developer/toolchains/gnu_arm/4.9_2015q3/bin/../lib/gcc/arm-none-eabi/4.9.3/../../../../arm-none-eabi/lib/armv7e-m/softfp\libc.a(lib_a-reent.o)
 .text._reclaim_reent
                0x00000000       0x88 c:/siliconlabs/simplicitystudio/v4/developer/toolchains/gnu_arm/4.9_2015q3/bin/../lib/gcc/arm-none-eabi/4.9.3/../../../../arm-none-eabi/lib/armv7e-m/softfp\libc.a(lib_a-reent.o)
 .text          0x00000000        0x0 c:/siliconlabs/simplicitystudio/v4/developer/toolchains/gnu_arm/4.9_2015q3/bin/../lib/gcc/arm-none-eabi/4.9.3/../../../../arm-none-eabi/lib/armv7e-m/softfp\libc.a(lib_a-stdio.o)
 .data          0x00000000        0x0 c:/siliconlabs/simplicitystudio/v4/developer/toolchains/gnu_arm/4.9_2015q3/bin/../lib/gcc/arm-none-eabi/4.9.3/../../../../arm-none-eabi/lib/armv7e-m/softfp\libc.a(lib_a-stdio.o)
 .bss           0x00000000        0x0 c:/siliconlabs/simplicitystudio/v4/developer/toolchains/gnu_arm/4.9_2015q3/bin/../lib/gcc/arm-none-eabi/4.9.3/../../../../arm-none-eabi/lib/armv7e-m/softfp\libc.a(lib_a-stdio.o)
 .text.__seofread
                0x00000000        0x4 c:/siliconlabs/simplicitystudio/v4/developer/toolchains/gnu_arm/4.9_2015q3/bin/../lib/gcc/arm-none-eabi/4.9.3/../../../../arm-none-eabi/lib/armv7e-m/softfp\libc.a(lib_a-stdio.o)
 .text          0x00000000        0x0 c:/siliconlabs/simplicitystudio/v4/developer/toolchains/gnu_arm/4.9_2015q3/bin/../lib/gcc/arm-none-eabi/4.9.3/../../../../arm-none-eabi/lib/armv7e-m/softfp\libc.a(lib_a-svfiprintf.o)
 .data          0x00000000        0x0 c:/siliconlabs/simplicitystudio/v4/developer/toolchains/gnu_arm/4.9_2015q3/bin/../lib/gcc/arm-none-eabi/4.9.3/../../../../arm-none-eabi/lib/armv7e-m/softfp\libc.a(lib_a-svfiprintf.o)
 .bss           0x00000000        0x0 c:/siliconlabs/simplicitystudio/v4/developer/toolchains/gnu_arm/4.9_2015q3/bin/../lib/gcc/arm-none-eabi/4.9.3/../../../../arm-none-eabi/lib/armv7e-m/softfp\libc.a(lib_a-svfiprintf.o)
 .text._svfiprintf_r
                0x00000000      0xaa0 c:/siliconlabs/simplicitystudio/v4/developer/toolchains/gnu_arm/4.9_2015q3/bin/../lib/gcc/arm-none-eabi/4.9.3/../../../../arm-none-eabi/lib/armv7e-m/softfp\libc.a(lib_a-svfiprintf.o)
 .rodata.blanks.6854
                0x00000000       0x10 c:/siliconlabs/simplicitystudio/v4/developer/toolchains/gnu_arm/4.9_2015q3/bin/../lib/gcc/arm-none-eabi/4.9.3/../../../../arm-none-eabi/lib/armv7e-m/softfp\libc.a(lib_a-svfiprintf.o)
 .rodata.str1.4
                0x00000000       0x2f c:/siliconlabs/simplicitystudio/v4/developer/toolchains/gnu_arm/4.9_2015q3/bin/../lib/gcc/arm-none-eabi/4.9.3/../../../../arm-none-eabi/lib/armv7e-m/softfp\libc.a(lib_a-svfiprintf.o)
 .rodata.zeroes.6855
                0x00000000       0x10 c:/siliconlabs/simplicitystudio/v4/developer/toolchains/gnu_arm/4.9_2015q3/bin/../lib/gcc/arm-none-eabi/4.9.3/../../../../arm-none-eabi/lib/armv7e-m/softfp\libc.a(lib_a-svfiprintf.o)
 .text          0x00000000        0x0 c:/siliconlabs/simplicitystudio/v4/developer/toolchains/gnu_arm/4.9_2015q3/bin/../lib/gcc/arm-none-eabi/4.9.3/../../../../arm-none-eabi/lib/armv7e-m/softfp\libc.a(lib_a-vfiprintf.o)
 .data          0x00000000        0x0 c:/siliconlabs/simplicitystudio/v4/developer/toolchains/gnu_arm/4.9_2015q3/bin/../lib/gcc/arm-none-eabi/4.9.3/../../../../arm-none-eabi/lib/armv7e-m/softfp\libc.a(lib_a-vfiprintf.o)
 .bss           0x00000000        0x0 c:/siliconlabs/simplicitystudio/v4/developer/toolchains/gnu_arm/4.9_2015q3/bin/../lib/gcc/arm-none-eabi/4.9.3/../../../../arm-none-eabi/lib/armv7e-m/softfp\libc.a(lib_a-vfiprintf.o)
 .text._vfiprintf_r
                0x00000000      0xc10 c:/siliconlabs/simplicitystudio/v4/developer/toolchains/gnu_arm/4.9_2015q3/bin/../lib/gcc/arm-none-eabi/4.9.3/../../../../arm-none-eabi/lib/armv7e-m/softfp\libc.a(lib_a-vfiprintf.o)
 .text.vfiprintf
                0x00000000       0x18 c:/siliconlabs/simplicitystudio/v4/developer/toolchains/gnu_arm/4.9_2015q3/bin/../lib/gcc/arm-none-eabi/4.9.3/../../../../arm-none-eabi/lib/armv7e-m/softfp\libc.a(lib_a-vfiprintf.o)
 .text.__sbprintf
                0x00000000       0x78 c:/siliconlabs/simplicitystudio/v4/developer/toolchains/gnu_arm/4.9_2015q3/bin/../lib/gcc/arm-none-eabi/4.9.3/../../../../arm-none-eabi/lib/armv7e-m/softfp\libc.a(lib_a-vfiprintf.o)
 .rodata.zeroes.6869
                0x00000000       0x10 c:/siliconlabs/simplicitystudio/v4/developer/toolchains/gnu_arm/4.9_2015q3/bin/../lib/gcc/arm-none-eabi/4.9.3/../../../../arm-none-eabi/lib/armv7e-m/softfp\libc.a(lib_a-vfiprintf.o)
 .rodata.str1.4
                0x00000000       0x2f c:/siliconlabs/simplicitystudio/v4/developer/toolchains/gnu_arm/4.9_2015q3/bin/../lib/gcc/arm-none-eabi/4.9.3/../../../../arm-none-eabi/lib/armv7e-m/softfp\libc.a(lib_a-vfiprintf.o)
 .rodata.blanks.6868
                0x00000000       0x10 c:/siliconlabs/simplicitystudio/v4/developer/toolchains/gnu_arm/4.9_2015q3/bin/../lib/gcc/arm-none-eabi/4.9.3/../../../../arm-none-eabi/lib/armv7e-m/softfp\libc.a(lib_a-vfiprintf.o)
 .text          0x00000000        0x0 c:/siliconlabs/simplicitystudio/v4/developer/toolchains/gnu_arm/4.9_2015q3/bin/../lib/gcc/arm-none-eabi/4.9.3/../../../../arm-none-eabi/lib/armv7e-m/softfp\libc.a(lib_a-writer.o)
 .data          0x00000000        0x0 c:/siliconlabs/simplicitystudio/v4/developer/toolchains/gnu_arm/4.9_2015q3/bin/../lib/gcc/arm-none-eabi/4.9.3/../../../../arm-none-eabi/lib/armv7e-m/softfp\libc.a(lib_a-writer.o)
 .bss           0x00000000        0x0 c:/siliconlabs/simplicitystudio/v4/developer/toolchains/gnu_arm/4.9_2015q3/bin/../lib/gcc/arm-none-eabi/4.9.3/../../../../arm-none-eabi/lib/armv7e-m/softfp\libc.a(lib_a-writer.o)
 .text          0x00000000        0x0 c:/siliconlabs/simplicitystudio/v4/developer/toolchains/gnu_arm/4.9_2015q3/bin/../lib/gcc/arm-none-eabi/4.9.3/../../../../arm-none-eabi/lib/armv7e-m/softfp\libc.a(lib_a-__atexit.o)
 .data          0x00000000        0x0 c:/siliconlabs/simplicitystudio/v4/developer/toolchains/gnu_arm/4.9_2015q3/bin/../lib/gcc/arm-none-eabi/4.9.3/../../../../arm-none-eabi/lib/armv7e-m/softfp\libc.a(lib_a-__atexit.o)
 .bss           0x00000000        0x0 c:/siliconlabs/simplicitystudio/v4/developer/toolchains/gnu_arm/4.9_2015q3/bin/../lib/gcc/arm-none-eabi/4.9.3/../../../../arm-none-eabi/lib/armv7e-m/softfp\libc.a(lib_a-__atexit.o)
 .text          0x00000000        0x0 c:/siliconlabs/simplicitystudio/v4/developer/toolchains/gnu_arm/4.9_2015q3/bin/../lib/gcc/arm-none-eabi/4.9.3/../../../../arm-none-eabi/lib/armv7e-m/softfp\libc.a(lib_a-callocr.o)
 .data          0x00000000        0x0 c:/siliconlabs/simplicitystudio/v4/developer/toolchains/gnu_arm/4.9_2015q3/bin/../lib/gcc/arm-none-eabi/4.9.3/../../../../arm-none-eabi/lib/armv7e-m/softfp\libc.a(lib_a-callocr.o)
 .bss           0x00000000        0x0 c:/siliconlabs/simplicitystudio/v4/developer/toolchains/gnu_arm/4.9_2015q3/bin/../lib/gcc/arm-none-eabi/4.9.3/../../../../arm-none-eabi/lib/armv7e-m/softfp\libc.a(lib_a-callocr.o)
 .text          0x00000000        0x0 c:/siliconlabs/simplicitystudio/v4/developer/toolchains/gnu_arm/4.9_2015q3/bin/../lib/gcc/arm-none-eabi/4.9.3/../../../../arm-none-eabi/lib/armv7e-m/softfp\libc.a(lib_a-closer.o)
 .data          0x00000000        0x0 c:/siliconlabs/simplicitystudio/v4/developer/toolchains/gnu_arm/4.9_2015q3/bin/../lib/gcc/arm-none-eabi/4.9.3/../../../../arm-none-eabi/lib/armv7e-m/softfp\libc.a(lib_a-closer.o)
 .bss           0x00000000        0x0 c:/siliconlabs/simplicitystudio/v4/developer/toolchains/gnu_arm/4.9_2015q3/bin/../lib/gcc/arm-none-eabi/4.9.3/../../../../arm-none-eabi/lib/armv7e-m/softfp\libc.a(lib_a-closer.o)
 .text          0x00000000        0x0 c:/siliconlabs/simplicitystudio/v4/developer/toolchains/gnu_arm/4.9_2015q3/bin/../lib/gcc/arm-none-eabi/4.9.3/../../../../arm-none-eabi/lib/armv7e-m/softfp\libc.a(lib_a-fclose.o)
 .data          0x00000000        0x0 c:/siliconlabs/simplicitystudio/v4/developer/toolchains/gnu_arm/4.9_2015q3/bin/../lib/gcc/arm-none-eabi/4.9.3/../../../../arm-none-eabi/lib/armv7e-m/softfp\libc.a(lib_a-fclose.o)
 .bss           0x00000000        0x0 c:/siliconlabs/simplicitystudio/v4/developer/toolchains/gnu_arm/4.9_2015q3/bin/../lib/gcc/arm-none-eabi/4.9.3/../../../../arm-none-eabi/lib/armv7e-m/softfp\libc.a(lib_a-fclose.o)
 .text.fclose   0x00000000       0x10 c:/siliconlabs/simplicitystudio/v4/developer/toolchains/gnu_arm/4.9_2015q3/bin/../lib/gcc/arm-none-eabi/4.9.3/../../../../arm-none-eabi/lib/armv7e-m/softfp\libc.a(lib_a-fclose.o)
 .text          0x00000000        0x0 c:/siliconlabs/simplicitystudio/v4/developer/toolchains/gnu_arm/4.9_2015q3/bin/../lib/gcc/arm-none-eabi/4.9.3/../../../../arm-none-eabi/lib/armv7e-m/softfp\libc.a(lib_a-fputwc.o)
 .data          0x00000000        0x0 c:/siliconlabs/simplicitystudio/v4/developer/toolchains/gnu_arm/4.9_2015q3/bin/../lib/gcc/arm-none-eabi/4.9.3/../../../../arm-none-eabi/lib/armv7e-m/softfp\libc.a(lib_a-fputwc.o)
 .bss           0x00000000        0x0 c:/siliconlabs/simplicitystudio/v4/developer/toolchains/gnu_arm/4.9_2015q3/bin/../lib/gcc/arm-none-eabi/4.9.3/../../../../arm-none-eabi/lib/armv7e-m/softfp\libc.a(lib_a-fputwc.o)
 .text.fputwc   0x00000000       0x28 c:/siliconlabs/simplicitystudio/v4/developer/toolchains/gnu_arm/4.9_2015q3/bin/../lib/gcc/arm-none-eabi/4.9.3/../../../../arm-none-eabi/lib/armv7e-m/softfp\libc.a(lib_a-fputwc.o)
 .text          0x00000000        0x0 c:/siliconlabs/simplicitystudio/v4/developer/toolchains/gnu_arm/4.9_2015q3/bin/../lib/gcc/arm-none-eabi/4.9.3/../../../../arm-none-eabi/lib/armv7e-m/softfp\libc.a(lib_a-fstatr.o)
 .data          0x00000000        0x0 c:/siliconlabs/simplicitystudio/v4/developer/toolchains/gnu_arm/4.9_2015q3/bin/../lib/gcc/arm-none-eabi/4.9.3/../../../../arm-none-eabi/lib/armv7e-m/softfp\libc.a(lib_a-fstatr.o)
 .bss           0x00000000        0x0 c:/siliconlabs/simplicitystudio/v4/developer/toolchains/gnu_arm/4.9_2015q3/bin/../lib/gcc/arm-none-eabi/4.9.3/../../../../arm-none-eabi/lib/armv7e-m/softfp\libc.a(lib_a-fstatr.o)
 .text          0x00000000        0x0 c:/siliconlabs/simplicitystudio/v4/developer/toolchains/gnu_arm/4.9_2015q3/bin/../lib/gcc/arm-none-eabi/4.9.3/../../../../arm-none-eabi/lib/armv7e-m/softfp\libc.a(lib_a-fvwrite.o)
 .data          0x00000000        0x0 c:/siliconlabs/simplicitystudio/v4/developer/toolchains/gnu_arm/4.9_2015q3/bin/../lib/gcc/arm-none-eabi/4.9.3/../../../../arm-none-eabi/lib/armv7e-m/softfp\libc.a(lib_a-fvwrite.o)
 .bss           0x00000000        0x0 c:/siliconlabs/simplicitystudio/v4/developer/toolchains/gnu_arm/4.9_2015q3/bin/../lib/gcc/arm-none-eabi/4.9.3/../../../../arm-none-eabi/lib/armv7e-m/softfp\libc.a(lib_a-fvwrite.o)
 .text          0x00000000        0x0 c:/siliconlabs/simplicitystudio/v4/developer/toolchains/gnu_arm/4.9_2015q3/bin/../lib/gcc/arm-none-eabi/4.9.3/../../../../arm-none-eabi/lib/armv7e-m/softfp\libc.a(lib_a-isattyr.o)
 .data          0x00000000        0x0 c:/siliconlabs/simplicitystudio/v4/developer/toolchains/gnu_arm/4.9_2015q3/bin/../lib/gcc/arm-none-eabi/4.9.3/../../../../arm-none-eabi/lib/armv7e-m/softfp\libc.a(lib_a-isattyr.o)
 .bss           0x00000000        0x0 c:/siliconlabs/simplicitystudio/v4/developer/toolchains/gnu_arm/4.9_2015q3/bin/../lib/gcc/arm-none-eabi/4.9.3/../../../../arm-none-eabi/lib/armv7e-m/softfp\libc.a(lib_a-isattyr.o)
 .text          0x00000000        0x0 c:/siliconlabs/simplicitystudio/v4/developer/toolchains/gnu_arm/4.9_2015q3/bin/../lib/gcc/arm-none-eabi/4.9.3/../../../../arm-none-eabi/lib/armv7e-m/softfp\libc.a(lib_a-lseekr.o)
 .data          0x00000000        0x0 c:/siliconlabs/simplicitystudio/v4/developer/toolchains/gnu_arm/4.9_2015q3/bin/../lib/gcc/arm-none-eabi/4.9.3/../../../../arm-none-eabi/lib/armv7e-m/softfp\libc.a(lib_a-lseekr.o)
 .bss           0x00000000        0x0 c:/siliconlabs/simplicitystudio/v4/developer/toolchains/gnu_arm/4.9_2015q3/bin/../lib/gcc/arm-none-eabi/4.9.3/../../../../arm-none-eabi/lib/armv7e-m/softfp\libc.a(lib_a-lseekr.o)
 .text          0x00000000        0x0 c:/siliconlabs/simplicitystudio/v4/developer/toolchains/gnu_arm/4.9_2015q3/bin/../lib/gcc/arm-none-eabi/4.9.3/../../../../arm-none-eabi/lib/armv7e-m/softfp\libc.a(lib_a-readr.o)
 .data          0x00000000        0x0 c:/siliconlabs/simplicitystudio/v4/developer/toolchains/gnu_arm/4.9_2015q3/bin/../lib/gcc/arm-none-eabi/4.9.3/../../../../arm-none-eabi/lib/armv7e-m/softfp\libc.a(lib_a-readr.o)
 .bss           0x00000000        0x0 c:/siliconlabs/simplicitystudio/v4/developer/toolchains/gnu_arm/4.9_2015q3/bin/../lib/gcc/arm-none-eabi/4.9.3/../../../../arm-none-eabi/lib/armv7e-m/softfp\libc.a(lib_a-readr.o)
 .text          0x00000000        0x0 c:/siliconlabs/simplicitystudio/v4/developer/toolchains/gnu_arm/4.9_2015q3/bin/../lib/gcc/arm-none-eabi/4.9.3/../../../../arm-none-eabi/lib/armv7e-m/softfp\libc.a(lib_a-reallocr.o)
 .data          0x00000000        0x0 c:/siliconlabs/simplicitystudio/v4/developer/toolchains/gnu_arm/4.9_2015q3/bin/../lib/gcc/arm-none-eabi/4.9.3/../../../../arm-none-eabi/lib/armv7e-m/softfp\libc.a(lib_a-reallocr.o)
 .bss           0x00000000        0x0 c:/siliconlabs/simplicitystudio/v4/developer/toolchains/gnu_arm/4.9_2015q3/bin/../lib/gcc/arm-none-eabi/4.9.3/../../../../arm-none-eabi/lib/armv7e-m/softfp\libc.a(lib_a-reallocr.o)
 .text          0x00000000        0x0 c:/siliconlabs/simplicitystudio/v4/developer/toolchains/gnu_arm/4.9_2015q3/bin/../lib/gcc/arm-none-eabi/4.9.3/../../../../arm-none-eabi/lib/armv7e-m/softfp\libc.a(lib_a-wbuf.o)
 .data          0x00000000        0x0 c:/siliconlabs/simplicitystudio/v4/developer/toolchains/gnu_arm/4.9_2015q3/bin/../lib/gcc/arm-none-eabi/4.9.3/../../../../arm-none-eabi/lib/armv7e-m/softfp\libc.a(lib_a-wbuf.o)
 .bss           0x00000000        0x0 c:/siliconlabs/simplicitystudio/v4/developer/toolchains/gnu_arm/4.9_2015q3/bin/../lib/gcc/arm-none-eabi/4.9.3/../../../../arm-none-eabi/lib/armv7e-m/softfp\libc.a(lib_a-wbuf.o)
 .text.__swbuf  0x00000000       0x10 c:/siliconlabs/simplicitystudio/v4/developer/toolchains/gnu_arm/4.9_2015q3/bin/../lib/gcc/arm-none-eabi/4.9.3/../../../../arm-none-eabi/lib/armv7e-m/softfp\libc.a(lib_a-wbuf.o)
 .text          0x00000000        0x0 c:/siliconlabs/simplicitystudio/v4/developer/toolchains/gnu_arm/4.9_2015q3/bin/../lib/gcc/arm-none-eabi/4.9.3/../../../../arm-none-eabi/lib/armv7e-m/softfp\libc.a(lib_a-wcrtomb.o)
 .data          0x00000000        0x0 c:/siliconlabs/simplicitystudio/v4/developer/toolchains/gnu_arm/4.9_2015q3/bin/../lib/gcc/arm-none-eabi/4.9.3/../../../../arm-none-eabi/lib/armv7e-m/softfp\libc.a(lib_a-wcrtomb.o)
 .bss           0x00000000        0x0 c:/siliconlabs/simplicitystudio/v4/developer/toolchains/gnu_arm/4.9_2015q3/bin/../lib/gcc/arm-none-eabi/4.9.3/../../../../arm-none-eabi/lib/armv7e-m/softfp\libc.a(lib_a-wcrtomb.o)
 .text.wcrtomb  0x00000000       0x58 c:/siliconlabs/simplicitystudio/v4/developer/toolchains/gnu_arm/4.9_2015q3/bin/../lib/gcc/arm-none-eabi/4.9.3/../../../../arm-none-eabi/lib/armv7e-m/softfp\libc.a(lib_a-wcrtomb.o)
 .text          0x00000000        0x0 c:/siliconlabs/simplicitystudio/v4/developer/toolchains/gnu_arm/4.9_2015q3/bin/../lib/gcc/arm-none-eabi/4.9.3/../../../../arm-none-eabi/lib/armv7e-m/softfp\libc.a(lib_a-wctomb_r.o)
 .data          0x00000000        0x0 c:/siliconlabs/simplicitystudio/v4/developer/toolchains/gnu_arm/4.9_2015q3/bin/../lib/gcc/arm-none-eabi/4.9.3/../../../../arm-none-eabi/lib/armv7e-m/softfp\libc.a(lib_a-wctomb_r.o)
 .bss           0x00000000        0x0 c:/siliconlabs/simplicitystudio/v4/developer/toolchains/gnu_arm/4.9_2015q3/bin/../lib/gcc/arm-none-eabi/4.9.3/../../../../arm-none-eabi/lib/armv7e-m/softfp\libc.a(lib_a-wctomb_r.o)
 .text._wctomb_r
                0x00000000       0x30 c:/siliconlabs/simplicitystudio/v4/developer/toolchains/gnu_arm/4.9_2015q3/bin/../lib/gcc/arm-none-eabi/4.9.3/../../../../arm-none-eabi/lib/armv7e-m/softfp\libc.a(lib_a-wctomb_r.o)
 .data          0x00000000        0x0 c:/siliconlabs/simplicitystudio/v4/developer/toolchains/gnu_arm/4.9_2015q3/bin/../lib/gcc/arm-none-eabi/4.9.3/armv7e-m/softfp\libgcc.a(_arm_fixdfsi.o)
 .bss           0x00000000        0x0 c:/siliconlabs/simplicitystudio/v4/developer/toolchains/gnu_arm/4.9_2015q3/bin/../lib/gcc/arm-none-eabi/4.9.3/armv7e-m/softfp\libgcc.a(_arm_fixdfsi.o)
 .text          0x00000000        0x0 c:/siliconlabs/simplicitystudio/v4/developer/toolchains/gnu_arm/4.9_2015q3/bin/../lib/gcc/arm-none-eabi/4.9.3/armv7e-m/softfp/crtend.o
 .data          0x00000000        0x0 c:/siliconlabs/simplicitystudio/v4/developer/toolchains/gnu_arm/4.9_2015q3/bin/../lib/gcc/arm-none-eabi/4.9.3/armv7e-m/softfp/crtend.o
 .bss           0x00000000        0x0 c:/siliconlabs/simplicitystudio/v4/developer/toolchains/gnu_arm/4.9_2015q3/bin/../lib/gcc/arm-none-eabi/4.9.3/armv7e-m/softfp/crtend.o
 .text          0x00000000        0x0 c:/siliconlabs/simplicitystudio/v4/developer/toolchains/gnu_arm/4.9_2015q3/bin/../lib/gcc/arm-none-eabi/4.9.3/armv7e-m/softfp/crtn.o
 .data          0x00000000        0x0 c:/siliconlabs/simplicitystudio/v4/developer/toolchains/gnu_arm/4.9_2015q3/bin/../lib/gcc/arm-none-eabi/4.9.3/armv7e-m/softfp/crtn.o
 .bss           0x00000000        0x0 c:/siliconlabs/simplicitystudio/v4/developer/toolchains/gnu_arm/4.9_2015q3/bin/../lib/gcc/arm-none-eabi/4.9.3/armv7e-m/softfp/crtn.o

Memory Configuration

Name             Origin             Length             Attributes
FLASH            0x00000000         0x00080000         xr
RAM              0x20000000         0x00010000         xrw
*default*        0x00000000         0xffffffff

Linker script and memory map

LOAD c:/siliconlabs/simplicitystudio/v4/developer/toolchains/gnu_arm/4.9_2015q3/bin/../lib/gcc/arm-none-eabi/4.9.3/armv7e-m/softfp/crti.o
LOAD c:/siliconlabs/simplicitystudio/v4/developer/toolchains/gnu_arm/4.9_2015q3/bin/../lib/gcc/arm-none-eabi/4.9.3/armv7e-m/softfp/crtbegin.o
LOAD c:/siliconlabs/simplicitystudio/v4/developer/toolchains/gnu_arm/4.9_2015q3/bin/../lib/gcc/arm-none-eabi/4.9.3/../../../../arm-none-eabi/lib/armv7e-m/softfp/crt0.o
START GROUP
LOAD ./dcd_switch.o
LOAD ./gatt_db.o
LOAD ./graphics.o
LOAD ./main.o
LOAD ./pti.o
LOAD ./device/EFR32_B_1_3_P/gcc/startup_efr32bg13p.o
LOAD ./device/EFR32_B_1_3_P/system_efr32bg13p.o
LOAD ./emdrv/dmadrv.o
LOAD ./emdrv/gpiointerrupt.o
LOAD ./emdrv/sleep.o
LOAD ./emdrv/tempdrv.o
LOAD ./emdrv/uartdrv.o
LOAD ./emlib/em_adc.o
LOAD ./emlib/em_cmu.o
LOAD ./emlib/em_core.o
LOAD ./emlib/em_crypto.o
LOAD ./emlib/em_emu.o
LOAD ./emlib/em_gpio.o
LOAD ./emlib/em_i2c.o
LOAD ./emlib/em_ldma.o
LOAD ./emlib/em_leuart.o
LOAD ./emlib/em_msc.o
LOAD ./emlib/em_rmu.o
LOAD ./emlib/em_rtcc.o
LOAD ./emlib/em_system.o
LOAD ./emlib/em_usart.o
LOAD ./glib/BRD4104A/bmp.o
LOAD ./glib/BRD4104A/dmd_display.o
LOAD ./glib/BRD4104A/glib.o
LOAD ./glib/BRD4104A/glib_bitmap.o
LOAD ./glib/BRD4104A/glib_circle.o
LOAD ./glib/BRD4104A/glib_font_narrow_6x8.o
LOAD ./glib/BRD4104A/glib_font_normal_8x8.o
LOAD ./glib/BRD4104A/glib_font_number_16x20.o
LOAD ./glib/BRD4104A/glib_line.o
LOAD ./glib/BRD4104A/glib_polygon.o
LOAD ./glib/BRD4104A/glib_rectangle.o
LOAD ./glib/BRD4104A/glib_string.o
LOAD ./kit/BRD4104A/bsp_bcc.o
LOAD ./kit/BRD4104A/bsp_stk.o
LOAD ./kit/BRD4104A/bsp_stk_leds.o
LOAD ./kit/BRD4104A/i2cspm.o
LOAD ./kit/BRD4104A/si7013.o
LOAD ./kit/BRD4104A/tempsens.o
LOAD ./kit/BRD4104A/udelay.o
LOAD ./kit_flashpwr/BRD4104A/mx25flash_spi.o
LOAD ./kit_lcd/BRD4104A/display.o
LOAD ./kit_lcd/BRD4104A/displayls013b7dh03.o
LOAD ./kit_lcd/BRD4104A/displaypalemlib.o
LOAD ./serial_vcom/retargetio.o
LOAD ./serial_vcom/retargetserial.o
LOAD ./src/InitDevice.o
LOAD ./src/cmu.o
LOAD ./src/i2c.o
LOAD ./src/timer0.o
LOAD ./stack/bt_mesh_stack/mesh_lib.o
LOAD c:/siliconlabs/simplicitystudio/v4/developer/toolchains/gnu_arm/4.9_2015q3/bin/../lib/gcc/arm-none-eabi/4.9.3/../../../../arm-none-eabi/lib/armv7e-m/softfp\libm.a
LOAD C:/SiliconLabs/SimplicityStudio/v4/developer/sdks/blemesh/v1.1//protocol/bluetooth_dev/lib/EFR32XG13X/GCC/\libbluetooth_mesh.a
END GROUP
START GROUP
LOAD c:/siliconlabs/simplicitystudio/v4/developer/toolchains/gnu_arm/4.9_2015q3/bin/../lib/gcc/arm-none-eabi/4.9.3/armv7e-m/softfp\libgcc.a
LOAD c:/siliconlabs/simplicitystudio/v4/developer/toolchains/gnu_arm/4.9_2015q3/bin/../lib/gcc/arm-none-eabi/4.9.3/../../../../arm-none-eabi/lib/armv7e-m/softfp\libc.a
LOAD c:/siliconlabs/simplicitystudio/v4/developer/toolchains/gnu_arm/4.9_2015q3/bin/../lib/gcc/arm-none-eabi/4.9.3/../../../../arm-none-eabi/lib/armv7e-m/softfp\libnosys.a
END GROUP
START GROUP
LOAD c:/siliconlabs/simplicitystudio/v4/developer/toolchains/gnu_arm/4.9_2015q3/bin/../lib/gcc/arm-none-eabi/4.9.3/armv7e-m/softfp\libgcc.a
LOAD c:/siliconlabs/simplicitystudio/v4/developer/toolchains/gnu_arm/4.9_2015q3/bin/../lib/gcc/arm-none-eabi/4.9.3/../../../../arm-none-eabi/lib/armv7e-m/softfp\libg.a
LOAD c:/siliconlabs/simplicitystudio/v4/developer/toolchains/gnu_arm/4.9_2015q3/bin/../lib/gcc/arm-none-eabi/4.9.3/../../../../arm-none-eabi/lib/armv7e-m/softfp\libc.a
END GROUP
LOAD c:/siliconlabs/simplicitystudio/v4/developer/toolchains/gnu_arm/4.9_2015q3/bin/../lib/gcc/arm-none-eabi/4.9.3/armv7e-m/softfp/crtend.o
LOAD c:/siliconlabs/simplicitystudio/v4/developer/toolchains/gnu_arm/4.9_2015q3/bin/../lib/gcc/arm-none-eabi/4.9.3/armv7e-m/softfp/crtn.o

.text           0x00000000    0x5050c
 *(.vectors)
 .vectors       0x00000000       0xfc ./device/EFR32_B_1_3_P/gcc/startup_efr32bg13p.o
                0x00000000                __Vectors
                0x000000fc                __Vectors_End = .
                0x000000fc                __Vectors_Size = (__Vectors_End - __Vectors)
                0x000000fc                __end__ = .
 *(.text*)
 .text          0x000000fc       0x5c c:/siliconlabs/simplicitystudio/v4/developer/toolchains/gnu_arm/4.9_2015q3/bin/../lib/gcc/arm-none-eabi/4.9.3/armv7e-m/softfp/crtbegin.o
 .text          0x00000158       0x74 c:/siliconlabs/simplicitystudio/v4/developer/toolchains/gnu_arm/4.9_2015q3/bin/../lib/gcc/arm-none-eabi/4.9.3/../../../../arm-none-eabi/lib/armv7e-m/softfp/crt0.o
                0x00000158                _start
                0x00000158                _mainCRTStartup
 .text.graphPrintCenter.constprop.0
                0x000001cc       0x94 ./graphics.o
 .text.graphInit
                0x00000260       0x44 ./graphics.o
                0x00000260                graphInit
 .text.graphWriteString
                0x000002a4       0x40 ./graphics.o
                0x000002a4                graphWriteString
 .text.onoff_change
                0x000002e4        0x4 ./main.o
 .text.power_onoff_change
                0x000002e8        0x4 ./main.o
 .text.transtime_change
                0x000002ec        0x4 ./main.o
 .text.onoff_update
                0x000002f0       0x2c ./main.o
 .text.power_onoff_update
                0x0000031c       0x2c ./main.o
 .text.gpioint  0x00000348       0x18 ./main.o
                0x00000348                gpioint
 .text.led_init
                0x00000360       0x20 ./main.o
 .text.onoff_update_and_publish
                0x00000380       0x1c ./main.o
 .text.LCD_write.part.1
                0x0000039c       0x48 ./main.o
 .text.lightbulb_state_store
                0x000003e4       0x50 ./main.o
 .text.transtime_request
                0x00000434       0xa4 ./main.o
 .text.power_onoff_request
                0x000004d8       0xb4 ./main.o
 .text.onoff_request
                0x0000058c      0x148 ./main.o
 .text.transition_complete
                0x000006d4       0x68 ./main.o
                0x000006d4                transition_complete
 .text.enable_button_interrupts
                0x0000073c       0x48 ./main.o
                0x0000073c                enable_button_interrupts
 .text.send_onoff_request
                0x00000784       0xd0 ./main.o
                0x00000784                send_onoff_request
 .text.lightbulb_state_init
                0x00000854      0x1ac ./main.o
                0x00000854                lightbulb_state_init
 .text.handle_button_press
                0x00000a00       0x6c ./main.o
                0x00000a00                handle_button_press
 .text.rtcIntCallbackRegister
                0x00000a6c        0x4 ./main.o
                0x00000a6c                rtcIntCallbackRegister
 .text.LCD_init
                0x00000a70       0x2c ./main.o
                0x00000a70                LCD_init
 .text.set_device_name
                0x00000a9c       0x9c ./main.o
                0x00000a9c                set_device_name
 .text.initiate_factory_reset
                0x00000b38       0x74 ./main.o
                0x00000b38                initiate_factory_reset
 .text.startup.main
                0x00000bac      0x68c ./main.o
                0x00000bac                main
 .text.APP_ConfigEnablePti
                0x00001238       0x30 ./pti.o
                0x00001238                APP_ConfigEnablePti
 .text.Default_Handler
                0x00001268        0x4 ./device/EFR32_B_1_3_P/gcc/startup_efr32bg13p.o
                0x00001268                DebugMon_Handler
                0x00001268                USART0_TX_IRQHandler
                0x00001268                PRORTC_IRQHandler
                0x00001268                I2C0_IRQHandler
                0x00001268                HardFault_Handler
                0x00001268                SysTick_Handler
                0x00001268                USART1_RX_IRQHandler
                0x00001268                PendSV_Handler
                0x00001268                NMI_Handler
                0x00001268                SYNTH_IRQHandler
                0x00001268                I2C1_IRQHandler
                0x00001268                WTIMER0_IRQHandler
                0x00001268                CRYPTO0_IRQHandler
                0x00001268                WDOG0_IRQHandler
                0x00001268                USART1_TX_IRQHandler
                0x00001268                SMU_IRQHandler
                0x00001268                MSC_IRQHandler
                0x00001268                ADC0_IRQHandler
                0x00001268                UsageFault_Handler
                0x00001268                WDOG1_IRQHandler
                0x00001268                LEUART0_IRQHandler
                0x00001268                FPUEH_IRQHandler
                0x00001268                VDAC0_IRQHandler
                0x00001268                CSEN_IRQHandler
                0x00001268                CRYPTO1_IRQHandler
                0x00001268                LETIMER0_IRQHandler
                0x00001268                TIMER1_IRQHandler
                0x00001268                TRNG0_IRQHandler
                0x00001268                RFSENSE_IRQHandler
                0x00001268                BUFC_IRQHandler
                0x00001268                MODEM_IRQHandler
                0x00001268                USART2_RX_IRQHandler
                0x00001268                Default_Handler
                0x00001268                RAC_SEQ_IRQHandler
                0x00001268                FRC_PRI_IRQHandler
                0x00001268                FRC_IRQHandler
                0x00001268                CRYOTIMER_IRQHandler
                0x00001268                PCNT0_IRQHandler
                0x00001268                AGC_IRQHandler
                0x00001268                ACMP0_IRQHandler
                0x00001268                MemManage_Handler
                0x00001268                SVC_Handler
                0x00001268                RTCC_IRQHandler
                0x00001268                CMU_IRQHandler
                0x00001268                RAC_RSM_IRQHandler
                0x00001268                LESENSE_IRQHandler
                0x00001268                PROTIMER_IRQHandler
                0x00001268                BusFault_Handler
                0x00001268                USART2_TX_IRQHandler
                0x00001268                IDAC0_IRQHandler
 .text.Reset_Handler
                0x0000126c       0x38 ./device/EFR32_B_1_3_P/gcc/startup_efr32bg13p.o
                0x0000126c                Reset_Handler
 .text.SystemMaxCoreClockGet
                0x000012a4        0x8 ./device/EFR32_B_1_3_P/system_efr32bg13p.o
                0x000012a4                SystemMaxCoreClockGet
 .text.SystemHFClockGet
                0x000012ac       0x50 ./device/EFR32_B_1_3_P/system_efr32bg13p.o
                0x000012ac                SystemHFClockGet
 .text.SystemCoreClockGet
                0x000012fc       0x24 ./device/EFR32_B_1_3_P/system_efr32bg13p.o
                0x000012fc                SystemCoreClockGet
 .text.SystemHFXOClockGet
                0x00001320        0xc ./device/EFR32_B_1_3_P/system_efr32bg13p.o
                0x00001320                SystemHFXOClockGet
 .text.SystemHFXOClockSet
                0x0000132c       0x20 ./device/EFR32_B_1_3_P/system_efr32bg13p.o
                0x0000132c                SystemHFXOClockSet
 .text.SystemInit
                0x0000134c       0x14 ./device/EFR32_B_1_3_P/system_efr32bg13p.o
                0x0000134c                SystemInit
 .text.SystemLFRCOClockGet
                0x00001360        0x8 ./device/EFR32_B_1_3_P/system_efr32bg13p.o
                0x00001360                SystemLFRCOClockGet
 .text.SystemULFRCOClockGet
                0x00001368        0x8 ./device/EFR32_B_1_3_P/system_efr32bg13p.o
                0x00001368                SystemULFRCOClockGet
 .text.SystemLFXOClockGet
                0x00001370        0xc ./device/EFR32_B_1_3_P/system_efr32bg13p.o
                0x00001370                SystemLFXOClockGet
 .text.SystemLFXOClockSet
                0x0000137c       0x20 ./device/EFR32_B_1_3_P/system_efr32bg13p.o
                0x0000137c                SystemLFXOClockSet
 .text.LDMA_IRQHandler
                0x0000139c       0x7c ./emdrv/dmadrv.o
                0x0000139c                LDMA_IRQHandler
 .text.GPIOINT_IRQDispatcher
                0x00001418       0x2c ./emdrv/gpiointerrupt.o
 .text.GPIOINT_Init
                0x00001444       0x1c ./emdrv/gpiointerrupt.o
                0x00001444                GPIOINT_Init
 .text.GPIOINT_CallbackRegister
                0x00001460       0x1c ./emdrv/gpiointerrupt.o
                0x00001460                GPIOINT_CallbackRegister
 .text.GPIO_EVEN_IRQHandler
                0x0000147c       0x20 ./emdrv/gpiointerrupt.o
                0x0000147c                GPIO_EVEN_IRQHandler
 .text.GPIO_ODD_IRQHandler
                0x0000149c       0x20 ./emdrv/gpiointerrupt.o
                0x0000149c                GPIO_ODD_IRQHandler
 .text.sleepCallbackWrapper
                0x000014bc       0x14 ./emdrv/sleep.o
 .text.enterEMx
                0x000014d0       0x70 ./emdrv/sleep.o
 .text.SLEEP_Init
                0x00001540       0x44 ./emdrv/sleep.o
                0x00001540                SLEEP_Init
 .text.SLEEP_Sleep
                0x00001584       0x70 ./emdrv/sleep.o
                0x00001584                SLEEP_Sleep
 .text.SLEEP_SleepBlockBegin
                0x000015f4       0x28 ./emdrv/sleep.o
                0x000015f4                SLEEP_SleepBlockBegin
 .text.SLEEP_SleepBlockEnd
                0x0000161c       0x2c ./emdrv/sleep.o
                0x0000161c                SLEEP_SleepBlockEnd
 .text.SLEEP_LowestEnergyModeGet
                0x00001648       0x1c ./emdrv/sleep.o
                0x00001648                SLEEP_LowestEnergyModeGet
 .text.updateInterrupts
                0x00001664       0xdc ./emdrv/tempdrv.o
 .text.TEMPDRV_IRQHandler
                0x00001740       0xa0 ./emdrv/tempdrv.o
                0x00001740                TEMPDRV_IRQHandler
 .text.EMU_IRQHandler
                0x000017e0        0x4 ./emdrv/tempdrv.o
                0x000017e0                EMU_IRQHandler
 .text.TEMPDRV_Init
                0x000017e4       0xb0 ./emdrv/tempdrv.o
                0x000017e4                TEMPDRV_Init
 .text.flashWaitStateControl
                0x00001894       0x60 ./emlib/em_cmu.o
 .text.CMU_HFRCODevinfoGet
                0x000018f4       0xb4 ./emlib/em_cmu.o
 .text.flashWaitStateMax
                0x000019a8       0x10 ./emlib/em_cmu.o
 .text.CMU_OscillatorTuningSet.part.1
                0x000019b8       0x3c ./emlib/em_cmu.o
 .text.CMU_UpdateWaitStates
                0x000019f4        0x4 ./emlib/em_cmu.o
                0x000019f4                CMU_UpdateWaitStates
 .text.CMU_ClockEnable
                0x000019f8       0x8c ./emlib/em_cmu.o
                0x000019f8                CMU_ClockEnable
 .text.CMU_ClockPrescGet
                0x00001a84       0xd0 ./emlib/em_cmu.o
                0x00001a84                CMU_ClockPrescGet
 .text.CMU_ClockDivGet
                0x00001b54        0xc ./emlib/em_cmu.o
                0x00001b54                CMU_ClockDivGet
 .text.CMU_ClockSelectGet
                0x00001b60       0xc4 ./emlib/em_cmu.o
                0x00001b60                CMU_ClockSelectGet
 .text.lfClkGet
                0x00001c24       0x94 ./emlib/em_cmu.o
 .text.CMU_ClockFreqGet
                0x00001cb8      0x1a4 ./emlib/em_cmu.o
                0x00001cb8                CMU_ClockFreqGet
 .text.CMU_ClockPrescSet
                0x00001e5c      0x298 ./emlib/em_cmu.o
                0x00001e5c                CMU_ClockPrescSet
 .text.CMU_ClockDivSet
                0x000020f4        0x8 ./emlib/em_cmu.o
                0x000020f4                CMU_ClockDivSet
 .text.CMU_HFRCOBandSet
                0x000020fc      0x148 ./emlib/em_cmu.o
                0x000020fc                CMU_HFRCOBandSet
 .text.CMU_HFXOAutostartEnable
                0x00002244       0x8c ./emlib/em_cmu.o
                0x00002244                CMU_HFXOAutostartEnable
 .text.CMU_OscillatorTuningWait
                0x000022d0       0x5c ./emlib/em_cmu.o
                0x000022d0                CMU_OscillatorTuningWait
 .text.CMU_OscillatorEnable
                0x0000232c      0x12c ./emlib/em_cmu.o
                0x0000232c                CMU_OscillatorEnable
 .text.CMU_ClockSelectSet
                0x00002458      0x2bc ./emlib/em_cmu.o
                0x00002458                CMU_ClockSelectSet
 .text.CMU_HFXOInit
                0x00002714       0x7c ./emlib/em_cmu.o
                0x00002714                CMU_HFXOInit
 .text.CMU_LFXOInit
                0x00002790       0x40 ./emlib/em_cmu.o
                0x00002790                CMU_LFXOInit
 .text.CORE_EnterCritical
                0x000027d0        0x8 ./emlib/em_core.o
                0x000027d0                CORE_EnterCritical
 .text.CORE_ExitCritical
                0x000027d8        0x8 ./emlib/em_core.o
                0x000027d8                CORE_ExitCritical
 .text.CORE_EnterAtomic
                0x000027e0        0x8 ./emlib/em_core.o
                0x000027e0                CORE_EnterAtomic
 .text.CORE_ExitAtomic
                0x000027e8        0x8 ./emlib/em_core.o
                0x000027e8                CORE_ExitAtomic
 .text.CORE_SetNvicRamTableHandler
                0x000027f0       0x10 ./emlib/em_core.o
                0x000027f0                CORE_SetNvicRamTableHandler
 .text.CORE_InitNvicVectorTable
                0x00002800       0x48 ./emlib/em_core.o
                0x00002800                CORE_InitNvicVectorTable
 .text.CRYPTO_ModulusSet
                0x00002848       0x38 ./emlib/em_crypto.o
                0x00002848                CRYPTO_ModulusSet
 .text.CRYPTO_KeyRead
                0x00002880       0x2c ./emlib/em_crypto.o
                0x00002880                CRYPTO_KeyRead
 .text.lpGetDevinfoVrefLowHigh
                0x000028ac       0xdc ./emlib/em_emu.o
 .text.lpCmpHystCalibrationLoad.isra.0
                0x00002988       0x78 ./emlib/em_emu.o
 .text.vScaleDownEM23Setup
                0x00002a00       0x60 ./emlib/em_emu.o
 .text.emState.part.2
                0x00002a60       0x7c ./emlib/em_emu.o
 .text.emState  0x00002adc       0x50 ./emlib/em_emu.o
 .text.EMU_EnterEM2
                0x00002b2c       0x34 ./emlib/em_emu.o
                0x00002b2c                EMU_EnterEM2
 .text.EMU_EnterEM3
                0x00002b60       0x58 ./emlib/em_emu.o
                0x00002b60                EMU_EnterEM3
 .text.EMU_Save
                0x00002bb8        0x8 ./emlib/em_emu.o
                0x00002bb8                EMU_Save
 .text.EMU_Restore
                0x00002bc0        0x4 ./emlib/em_emu.o
                0x00002bc0                EMU_Restore
 .text.EMU_VScaleEM01
                0x00002bc4       0x68 ./emlib/em_emu.o
                0x00002bc4                EMU_VScaleEM01
 .text.EMU_VScaleEM01ByClock
                0x00002c2c       0x50 ./emlib/em_emu.o
                0x00002c2c                EMU_VScaleEM01ByClock
 .text.EMU_EM01Init
                0x00002c7c       0x14 ./emlib/em_emu.o
                0x00002c7c                EMU_EM01Init
 .text.EMU_EM23Init
                0x00002c90       0x18 ./emlib/em_emu.o
                0x00002c90                EMU_EM23Init
 .text.EMU_EM4Init
                0x00002ca8       0x5c ./emlib/em_emu.o
                0x00002ca8                EMU_EM4Init
 .text.EMU_DCDCModeSet
                0x00002d04       0x84 ./emlib/em_emu.o
                0x00002d04                EMU_DCDCModeSet
 .text.EMU_EnterEM4
                0x00002d88       0x50 ./emlib/em_emu.o
                0x00002d88                EMU_EnterEM4
 .text.EMU_DCDCOutputVoltageSet
                0x00002dd8      0x160 ./emlib/em_emu.o
                0x00002dd8                EMU_DCDCOutputVoltageSet
 .text.EMU_DCDCOptimizeSlice
                0x00002f38       0xf8 ./emlib/em_emu.o
                0x00002f38                EMU_DCDCOptimizeSlice
 .text.EMU_DCDCLnRcoBandSet
                0x00003030       0x24 ./emlib/em_emu.o
                0x00003030                EMU_DCDCLnRcoBandSet
 .text.EMU_DCDCInit
                0x00003054       0xec ./emlib/em_emu.o
                0x00003054                EMU_DCDCInit
 .text.GPIO_ExtIntConfig
                0x00003140       0xb0 ./emlib/em_gpio.o
                0x00003140                GPIO_ExtIntConfig
 .text.GPIO_PinModeSet
                0x000031f0       0x84 ./emlib/em_gpio.o
                0x000031f0                GPIO_PinModeSet
 .text.I2C_BusFreqSet.part.0
                0x00003274       0x60 ./emlib/em_i2c.o
 .text.I2C_Enable
                0x000032d4        0xc ./emlib/em_i2c.o
                0x000032d4                I2C_Enable
 .text.I2C_Init
                0x000032e0       0x3c ./emlib/em_i2c.o
                0x000032e0                I2C_Init
 .text.MSC_Init
                0x0000331c       0x20 ./emlib/em_msc.o
                0x0000331c                MSC_Init
 .text.MSC_Deinit
                0x0000333c       0x14 ./emlib/em_msc.o
                0x0000333c                MSC_Deinit
 .text.RMU_ResetCauseClear
                0x00003350        0xc ./emlib/em_rmu.o
                0x00003350                RMU_ResetCauseClear
 .text.RMU_ResetCauseGet
                0x0000335c       0x60 ./emlib/em_rmu.o
                0x0000335c                RMU_ResetCauseGet
 .text.RTCC_Enable
                0x000033bc        0xc ./emlib/em_rtcc.o
                0x000033bc                RTCC_Enable
 .text.RTCC_Init
                0x000033c8       0x48 ./emlib/em_rtcc.o
                0x000033c8                RTCC_Init
 .text.SYSTEM_ChipRevisionGet
                0x00003410       0x34 ./emlib/em_system.o
                0x00003410                SYSTEM_ChipRevisionGet
 .text.USART_BaudrateAsyncSet
                0x00003444       0x68 ./emlib/em_usart.o
                0x00003444                USART_BaudrateAsyncSet
 .text.USART_BaudrateSyncSet
                0x000034ac       0x24 ./emlib/em_usart.o
                0x000034ac                USART_BaudrateSyncSet
 .text.USART_Enable
                0x000034d0       0x10 ./emlib/em_usart.o
                0x000034d0                USART_Enable
 .text.USART_Reset
                0x000034e0       0x58 ./emlib/em_usart.o
                0x000034e0                USART_Reset
 .text.USART_InitAsync
                0x00003538       0x70 ./emlib/em_usart.o
                0x00003538                USART_InitAsync
 .text.USART_InitSync
                0x000035a8       0x88 ./emlib/em_usart.o
                0x000035a8                USART_InitSync
 .text.USART_Rx
                0x00003630        0xc ./emlib/em_usart.o
                0x00003630                USART_Rx
 .text.USART_SpiTransfer
                0x0000363c       0x14 ./emlib/em_usart.o
                0x0000363c                USART_SpiTransfer
 .text.USART_Tx
                0x00003650        0xc ./emlib/em_usart.o
                0x00003650                USART_Tx
 .text.USART_TxDouble
                0x0000365c        0xc ./emlib/em_usart.o
                0x0000365c                USART_TxDouble
 .text.DMD_writeColor.part.0
                0x00003668      0x190 ./glib/BRD4104A/dmd_display.o
 .text.DMD_getDisplayGeometry
                0x000037f8       0x1c ./glib/BRD4104A/dmd_display.o
                0x000037f8                DMD_getDisplayGeometry
 .text.DMD_setClippingArea
                0x00003814       0x44 ./glib/BRD4104A/dmd_display.o
                0x00003814                DMD_setClippingArea
 .text.DMD_writeColor
                0x00003858       0x20 ./glib/BRD4104A/dmd_display.o
                0x00003858                DMD_writeColor
 .text.DMD_allocateFramebuffer
                0x00003878       0x38 ./glib/BRD4104A/dmd_display.o
                0x00003878                DMD_allocateFramebuffer
 .text.DMD_init
                0x000038b0       0x78 ./glib/BRD4104A/dmd_display.o
                0x000038b0                DMD_init
 .text.DMD_updateDisplay
                0x00003928       0xbc ./glib/BRD4104A/dmd_display.o
                0x00003928                DMD_updateDisplay
 .text.GLIB_applyClippingRegion.part.1
                0x000039e4       0x1c ./glib/BRD4104A/glib.o
 .text.GLIB_setClippingRegion.part.2
                0x00003a00       0x48 ./glib/BRD4104A/glib.o
 .text.GLIB_contextInit
                0x00003a48       0x58 ./glib/BRD4104A/glib.o
                0x00003a48                GLIB_contextInit
 .text.GLIB_clear
                0x00003aa0       0x48 ./glib/BRD4104A/glib.o
                0x00003aa0                GLIB_clear
 .text.GLIB_drawPixel
                0x00003ae8       0x40 ./glib/BRD4104A/glib.o
                0x00003ae8                GLIB_drawPixel
 .text.GLIB_drawPixelColor
                0x00003b28       0x3c ./glib/BRD4104A/glib.o
                0x00003b28                GLIB_drawPixelColor
 .text.GLIB_rectContainsPoint
                0x00003b64       0x24 ./glib/BRD4104A/glib_rectangle.o
                0x00003b64                GLIB_rectContainsPoint
 .text.GLIB_drawChar.part.0
                0x00003b88      0x164 ./glib/BRD4104A/glib_string.o
 .text.GLIB_drawString
                0x00003cec       0x90 ./glib/BRD4104A/glib_string.o
                0x00003cec                GLIB_drawString
 .text.GLIB_setFont
                0x00003d7c       0x20 ./glib/BRD4104A/glib_string.o
                0x00003d7c                GLIB_setFont
 .text.UDELAY_Calibrate
                0x00003d9c      0x1c0 ./kit/BRD4104A/udelay.o
                0x00003d9c                UDELAY_Calibrate
 .text.UDELAY_Delay
                0x00003f5c       0x28 ./kit/BRD4104A/udelay.o
                0x00003f5c                UDELAY_Delay
 .text.MX25_init
                0x00003f84       0xa4 ./kit_flashpwr/BRD4104A/mx25flash_spi.o
                0x00003f84                MX25_init
 .text.MX25_DP  0x00004028       0x5c ./kit_flashpwr/BRD4104A/mx25flash_spi.o
                0x00004028                MX25_DP
 .text.DISPLAY_Init
                0x00004084       0x34 ./kit_lcd/BRD4104A/display.o
                0x00004084                DISPLAY_Init
 .text.DISPLAY_DeviceGet
                0x000040b8       0x38 ./kit_lcd/BRD4104A/display.o
                0x000040b8                DISPLAY_DeviceGet
 .text.DISPLAY_DeviceRegister
                0x000040f0       0x44 ./kit_lcd/BRD4104A/display.o
                0x000040f0                DISPLAY_DeviceRegister
 .text.PixelMatrixAllocate
                0x00004134       0x3c ./kit_lcd/BRD4104A/displayls013b7dh03.o
 .text.PixelMatrixFree
                0x00004170        0x8 ./kit_lcd/BRD4104A/displayls013b7dh03.o
 .text.DriverRefresh
                0x00004178       0x10 ./kit_lcd/BRD4104A/displayls013b7dh03.o
 .text.PixelMatrixClear
                0x00004188       0x20 ./kit_lcd/BRD4104A/displayls013b7dh03.o
 .text.PixelMatrixDraw
                0x000041a8       0x8c ./kit_lcd/BRD4104A/displayls013b7dh03.o
 .text.DisplayPolarityInverse
                0x00004234       0x10 ./kit_lcd/BRD4104A/displayls013b7dh03.o
 .text.DisplayEnable
                0x00004244       0x1c ./kit_lcd/BRD4104A/displayls013b7dh03.o
 .text.DISPLAY_Ls013b7dh03Init
                0x00004260       0xf4 ./kit_lcd/BRD4104A/displayls013b7dh03.o
                0x00004260                DISPLAY_Ls013b7dh03Init
 .text.PAL_SpiInit
                0x00004354       0x50 ./kit_lcd/BRD4104A/displaypalemlib.o
                0x00004354                PAL_SpiInit
 .text.PAL_SpiTransmit
                0x000043a4       0x40 ./kit_lcd/BRD4104A/displaypalemlib.o
                0x000043a4                PAL_SpiTransmit
 .text.PAL_TimerInit
                0x000043e4        0xc ./kit_lcd/BRD4104A/displaypalemlib.o
                0x000043e4                PAL_TimerInit
 .text.PAL_TimerMicroSecondsDelay
                0x000043f0        0xc ./kit_lcd/BRD4104A/displaypalemlib.o
                0x000043f0                PAL_TimerMicroSecondsDelay
 .text.PAL_TimerRepeat
                0x000043fc       0x18 ./kit_lcd/BRD4104A/displaypalemlib.o
                0x000043fc                PAL_TimerRepeat
 .text.PAL_GpioInit
                0x00004414       0x14 ./kit_lcd/BRD4104A/displaypalemlib.o
                0x00004414                PAL_GpioInit
 .text.PAL_GpioPinModeSet
                0x00004428       0x1c ./kit_lcd/BRD4104A/displaypalemlib.o
                0x00004428                PAL_GpioPinModeSet
 .text.PAL_GpioPinOutSet
                0x00004444       0x1c ./kit_lcd/BRD4104A/displaypalemlib.o
                0x00004444                PAL_GpioPinOutSet
 .text.PAL_GpioPinOutClear
                0x00004460       0x1c ./kit_lcd/BRD4104A/displaypalemlib.o
                0x00004460                PAL_GpioPinOutClear
 .text.PAL_GpioPinOutToggle
                0x0000447c       0x1c ./kit_lcd/BRD4104A/displaypalemlib.o
                0x0000447c                PAL_GpioPinOutToggle
 .text._close   0x00004498        0x4 ./serial_vcom/retargetio.o
                0x00004498                _close
 .text._exit    0x0000449c        0x4 ./serial_vcom/retargetio.o
                0x0000449c                _exit
 .text._fstat   0x000044a0        0xc ./serial_vcom/retargetio.o
                0x000044a0                _fstat
 .text._isatty  0x000044ac        0x4 ./serial_vcom/retargetio.o
                0x000044ac                _isatty
 .text._lseek   0x000044b0        0x4 ./serial_vcom/retargetio.o
                0x000044b0                _lseek
 .text._read    0x000044b4       0x30 ./serial_vcom/retargetio.o
                0x000044b4                _read
 .text._sbrk    0x000044e4       0x1c ./serial_vcom/retargetio.o
                0x000044e4                _sbrk
 .text._write   0x00004500       0x1c ./serial_vcom/retargetio.o
                0x00004500                _write
 .text.USART0_RX_IRQHandler
                0x0000451c       0x58 ./serial_vcom/retargetserial.o
                0x0000451c                USART0_RX_IRQHandler
 .text.RETARGET_SerialInit
                0x00004574       0xc8 ./serial_vcom/retargetserial.o
                0x00004574                RETARGET_SerialInit
 .text.RETARGET_ReadChar
                0x0000463c       0x58 ./serial_vcom/retargetserial.o
                0x0000463c                RETARGET_ReadChar
 .text.RETARGET_WriteChar
                0x00004694       0x58 ./serial_vcom/retargetserial.o
                0x00004694                RETARGET_WriteChar
 .text.EMU_enter_DefaultMode_from_RESET
                0x000046ec       0x8c ./src/InitDevice.o
                0x000046ec                EMU_enter_DefaultMode_from_RESET
 .text.CMU_enter_DefaultMode_from_RESET
                0x00004778      0x118 ./src/InitDevice.o
                0x00004778                CMU_enter_DefaultMode_from_RESET
 .text.RTCC_enter_DefaultMode_from_RESET
                0x00004890       0x48 ./src/InitDevice.o
                0x00004890                RTCC_enter_DefaultMode_from_RESET
 .text.enter_DefaultMode_from_RESET
                0x000048d8       0x64 ./src/InitDevice.o
                0x000048d8                enter_DefaultMode_from_RESET
 .text.i2c_init
                0x0000493c       0x9c ./src/i2c.o
                0x0000493c                i2c_init
 .text.i2c_readByte
                0x000049d8       0x84 ./src/i2c.o
                0x000049d8                i2c_readByte
 .text.i2c_writeByte
                0x00004a5c       0x48 ./src/i2c.o
                0x00004a5c                i2c_writeByte
 .text.lum_enable
                0x00004aa4       0x1c ./src/i2c.o
                0x00004aa4                lum_enable
 .text.getLuminosityValue
                0x00004ac0      0x1fc ./src/i2c.o
                0x00004ac0                getLuminosityValue
 .text.TIMER0_IRQHandler
                0x00004cbc       0x20 ./src/timer0.o
                0x00004cbc                TIMER0_IRQHandler
 .text.mesh_lib_transition_time_to_ms
                0x00004cdc       0x2c ./stack/bt_mesh_stack/mesh_lib.o
                0x00004cdc                mesh_lib_transition_time_to_ms
 .text.deserialize_request
                0x00004d08      0x120 ./stack/bt_mesh_stack/mesh_lib.o
                0x00004d08                deserialize_request
 .text.serialize_state
                0x00004e28      0x164 ./stack/bt_mesh_stack/mesh_lib.o
                0x00004e28                serialize_state
 .text.mesh_lib_init
                0x00004f8c       0x4c ./stack/bt_mesh_stack/mesh_lib.o
                0x00004f8c                mesh_lib_init
 .text.mesh_lib_generic_server_register_handler
                0x00004fd8       0x74 ./stack/bt_mesh_stack/mesh_lib.o
                0x00004fd8                mesh_lib_generic_server_register_handler
 .text.mesh_lib_generic_server_event_handler
                0x0000504c       0x98 ./stack/bt_mesh_stack/mesh_lib.o
                0x0000504c                mesh_lib_generic_server_event_handler
 .text.mesh_lib_generic_server_response
                0x000050e4       0x98 ./stack/bt_mesh_stack/mesh_lib.o
                0x000050e4                mesh_lib_generic_server_response
 .text.mesh_lib_generic_server_update
                0x0000517c       0x84 ./stack/bt_mesh_stack/mesh_lib.o
                0x0000517c                mesh_lib_generic_server_update
 .text.mesh_lib_generic_server_publish
                0x00005200       0x30 ./stack/bt_mesh_stack/mesh_lib.o
                0x00005200                mesh_lib_generic_server_publish
 .text.pow      0x00005230      0x2f8 c:/siliconlabs/simplicitystudio/v4/developer/toolchains/gnu_arm/4.9_2015q3/bin/../lib/gcc/arm-none-eabi/4.9.3/../../../../arm-none-eabi/lib/armv7e-m/softfp\libm.a(lib_a-w_pow.o)
                0x00005230                pow
 .text.__ieee754_pow
                0x00005528      0xa98 c:/siliconlabs/simplicitystudio/v4/developer/toolchains/gnu_arm/4.9_2015q3/bin/../lib/gcc/arm-none-eabi/4.9.3/../../../../arm-none-eabi/lib/armv7e-m/softfp\libm.a(lib_a-e_pow.o)
                0x00005528                __ieee754_pow
 .text.__ieee754_sqrt
                0x00005fc0      0x188 c:/siliconlabs/simplicitystudio/v4/developer/toolchains/gnu_arm/4.9_2015q3/bin/../lib/gcc/arm-none-eabi/4.9.3/../../../../arm-none-eabi/lib/armv7e-m/softfp\libm.a(lib_a-e_sqrt.o)
                0x00005fc0                __ieee754_sqrt
 .text.fabs     0x00006148        0x8 c:/siliconlabs/simplicitystudio/v4/developer/toolchains/gnu_arm/4.9_2015q3/bin/../lib/gcc/arm-none-eabi/4.9.3/../../../../arm-none-eabi/lib/armv7e-m/softfp\libm.a(lib_a-s_fabs.o)
                0x00006148                fabs
 .text.finite   0x00006150        0xc c:/siliconlabs/simplicitystudio/v4/developer/toolchains/gnu_arm/4.9_2015q3/bin/../lib/gcc/arm-none-eabi/4.9.3/../../../../arm-none-eabi/lib/armv7e-m/softfp\libm.a(lib_a-s_finite.o)
                0x00006150                finite
 .text.__fpclassifyd
                0x0000615c       0x58 c:/siliconlabs/simplicitystudio/v4/developer/toolchains/gnu_arm/4.9_2015q3/bin/../lib/gcc/arm-none-eabi/4.9.3/../../../../arm-none-eabi/lib/armv7e-m/softfp\libm.a(lib_a-s_fpclassify.o)
                0x0000615c                __fpclassifyd
 .text.matherr  0x000061b4        0x4 c:/siliconlabs/simplicitystudio/v4/developer/toolchains/gnu_arm/4.9_2015q3/bin/../lib/gcc/arm-none-eabi/4.9.3/../../../../arm-none-eabi/lib/armv7e-m/softfp\libm.a(lib_a-s_matherr.o)
                0x000061b4                matherr
 .text.nan      0x000061b8        0xc c:/siliconlabs/simplicitystudio/v4/developer/toolchains/gnu_arm/4.9_2015q3/bin/../lib/gcc/arm-none-eabi/4.9.3/../../../../arm-none-eabi/lib/armv7e-m/softfp\libm.a(lib_a-s_nan.o)
                0x000061b8                nan
 .text.rint     0x000061c4      0x118 c:/siliconlabs/simplicitystudio/v4/developer/toolchains/gnu_arm/4.9_2015q3/bin/../lib/gcc/arm-none-eabi/4.9.3/../../../../arm-none-eabi/lib/armv7e-m/softfp\libm.a(lib_a-s_rint.o)
                0x000061c4                rint
 *fill*         0x000062dc        0x4 
 .text.scalbn   0x000062e0      0x104 c:/siliconlabs/simplicitystudio/v4/developer/toolchains/gnu_arm/4.9_2015q3/bin/../lib/gcc/arm-none-eabi/4.9.3/../../../../arm-none-eabi/lib/armv7e-m/softfp\libm.a(lib_a-s_scalbn.o)
                0x000062e0                scalbn
 .text.copysign
                0x000063e4       0x10 c:/siliconlabs/simplicitystudio/v4/developer/toolchains/gnu_arm/4.9_2015q3/bin/../lib/gcc/arm-none-eabi/4.9.3/../../../../arm-none-eabi/lib/armv7e-m/softfp\libm.a(lib_a-s_copysign.o)
                0x000063e4                copysign
 *fill*         0x000063f4        0x4 
 .text          0x000063f8    0x3e1d0 C:/SiliconLabs/SimplicityStudio/v4/developer/sdks/blemesh/v1.1//protocol/bluetooth_dev/lib/EFR32XG13X/GCC/\libbluetooth_mesh.a
                0x00006454                gecko_init_alloc
                0x00006b24                vectors_init
                0x00006ea4                gecko_sleep_for_ms
                0x00006f44                bgapi_buffer_init
                0x00006fb8                register_message_handler
                0x000070ec                gecko_handle_library_packet
                0x00007f50                gecko_handle_command
                0x00007fd4                gecko_handle_command_noresponse
                0x00008004                gecko_external_signal
                0x00008120                gecko_priority_handle
                0x000081e8                gecko_register_bgapi_library
                0x00008248                gecko_event_pending
                0x000082bc                gecko_peek_event
                0x000082c0                gecko_wait_event
                0x000082e0                gecko_can_sleep_ms
                0x00008a58                gecko_stack_init
                0x0000a25c                gecko_bgapi_class_mesh_prov_init
                0x0000a268                gecko_bgapi_class_mesh_node_init
                0x0000a298                gecko_bgapi_class_mesh_generic_client_init
                0x0000a2a4                gecko_bgapi_class_mesh_generic_server_init
                0x0000fad8                gecko_bgapi_class_le_connection_init
                0x0000fae4                gecko_bgapi_class_endpoint_init
                0x0000faf0                gecko_bgapi_class_sm_init
                0x0000fb08                gecko_bgapi_class_flash_init
                0x0000fb20                gecko_bgapi_class_gatt_server_init
                0x0000fb2c                gecko_bgapi_class_gatt_init
                0x0000fb4c                gecko_bgapi_class_le_gap_init
                0x0000fb58                gecko_bgapi_class_dfu_init
                0x0000fb64                gecko_bgapi_class_test_init
                0x0000fb7c                gecko_bgapi_class_hardware_init
                0x0000fb94                gecko_bgapi_class_system_init
                0x0002396e                RAIL_EnablePti
                0x00023974                RAIL_GetPtiConfig
                0x0002397a                RAIL_ConfigPti
                0x0003a5a0                bg_pool_size
                0x0003a83c                bg_pool_free_count
                0x0003ae06                bg_message_send
 .text.unlikely
                0x000445c8       0x3a C:/SiliconLabs/SimplicityStudio/v4/developer/sdks/blemesh/v1.1//protocol/bluetooth_dev/lib/EFR32XG13X/GCC/\libbluetooth_mesh.a
 *fill*         0x00044602        0x2 
 .text          0x00044604      0x370 c:/siliconlabs/simplicitystudio/v4/developer/toolchains/gnu_arm/4.9_2015q3/bin/../lib/gcc/arm-none-eabi/4.9.3/armv7e-m/softfp\libgcc.a(_arm_addsubdf3.o)
                0x00044604                __aeabi_drsub
                0x0004460c                __aeabi_dsub
                0x0004460c                __subdf3
                0x00044610                __aeabi_dadd
                0x00044610                __adddf3
                0x00044888                __floatunsidf
                0x00044888                __aeabi_ui2d
                0x000448a8                __floatsidf
                0x000448a8                __aeabi_i2d
                0x000448cc                __aeabi_f2d
                0x000448cc                __extendsfdf2
                0x00044908                __floatundidf
                0x00044908                __aeabi_ul2d
                0x00044918                __floatdidf
                0x00044918                __aeabi_l2d
 .text          0x00044974      0x424 c:/siliconlabs/simplicitystudio/v4/developer/toolchains/gnu_arm/4.9_2015q3/bin/../lib/gcc/arm-none-eabi/4.9.3/armv7e-m/softfp\libgcc.a(_arm_muldivdf3.o)
                0x00044974                __aeabi_dmul
                0x00044974                __muldf3
                0x00044bc8                __divdf3
                0x00044bc8                __aeabi_ddiv
 .text          0x00044d98      0x110 c:/siliconlabs/simplicitystudio/v4/developer/toolchains/gnu_arm/4.9_2015q3/bin/../lib/gcc/arm-none-eabi/4.9.3/armv7e-m/softfp\libgcc.a(_arm_cmpdf2.o)
                0x00044d98                __gtdf2
                0x00044d98                __gedf2
                0x00044da0                __ltdf2
                0x00044da0                __ledf2
                0x00044da8                __nedf2
                0x00044da8                __eqdf2
                0x00044da8                __cmpdf2
                0x00044e24                __aeabi_cdrcmple
                0x00044e34                __aeabi_cdcmpeq
                0x00044e34                __aeabi_cdcmple
                0x00044e44                __aeabi_dcmpeq
                0x00044e58                __aeabi_dcmplt
                0x00044e6c                __aeabi_dcmple
                0x00044e80                __aeabi_dcmpge
                0x00044e94                __aeabi_dcmpgt
 .text          0x00044ea8       0x38 c:/siliconlabs/simplicitystudio/v4/developer/toolchains/gnu_arm/4.9_2015q3/bin/../lib/gcc/arm-none-eabi/4.9.3/armv7e-m/softfp\libgcc.a(_aeabi_ldivmod.o)
                0x00044ea8                __aeabi_ldivmod
 .text          0x00044ee0       0x30 c:/siliconlabs/simplicitystudio/v4/developer/toolchains/gnu_arm/4.9_2015q3/bin/../lib/gcc/arm-none-eabi/4.9.3/armv7e-m/softfp\libgcc.a(_aeabi_uldivmod.o)
                0x00044ee0                __aeabi_uldivmod
 .text          0x00044f10       0x60 c:/siliconlabs/simplicitystudio/v4/developer/toolchains/gnu_arm/4.9_2015q3/bin/../lib/gcc/arm-none-eabi/4.9.3/armv7e-m/softfp\libgcc.a(bpabi.o)
                0x00044f10                __gnu_ldivmod_helper
                0x00044f40                __gnu_uldivmod_helper
 .text          0x00044f70        0x4 c:/siliconlabs/simplicitystudio/v4/developer/toolchains/gnu_arm/4.9_2015q3/bin/../lib/gcc/arm-none-eabi/4.9.3/armv7e-m/softfp\libgcc.a(_dvmd_tls.o)
                0x00044f70                __aeabi_idiv0
                0x00044f70                __aeabi_ldiv0
 .text          0x00044f74      0x29c c:/siliconlabs/simplicitystudio/v4/developer/toolchains/gnu_arm/4.9_2015q3/bin/../lib/gcc/arm-none-eabi/4.9.3/armv7e-m/softfp\libgcc.a(_divdi3.o)
                0x00044f74                __divdi3
 .text          0x00045210      0x26c c:/siliconlabs/simplicitystudio/v4/developer/toolchains/gnu_arm/4.9_2015q3/bin/../lib/gcc/arm-none-eabi/4.9.3/armv7e-m/softfp\libgcc.a(_udivdi3.o)
                0x00045210                __udivdi3
 .text.__errno  0x0004547c        0xc c:/siliconlabs/simplicitystudio/v4/developer/toolchains/gnu_arm/4.9_2015q3/bin/../lib/gcc/arm-none-eabi/4.9.3/../../../../arm-none-eabi/lib/armv7e-m/softfp\libc.a(lib_a-errno.o)
                0x0004547c                __errno
 .text.exit     0x00045488       0x20 c:/siliconlabs/simplicitystudio/v4/developer/toolchains/gnu_arm/4.9_2015q3/bin/../lib/gcc/arm-none-eabi/4.9.3/../../../../arm-none-eabi/lib/armv7e-m/softfp\libc.a(lib_a-exit.o)
                0x00045488                exit
 .text.__libc_init_array
                0x000454a8       0x50 c:/siliconlabs/simplicitystudio/v4/developer/toolchains/gnu_arm/4.9_2015q3/bin/../lib/gcc/arm-none-eabi/4.9.3/../../../../arm-none-eabi/lib/armv7e-m/softfp\libc.a(lib_a-init.o)
                0x000454a8                __libc_init_array
 .text.malloc   0x000454f8       0x10 c:/siliconlabs/simplicitystudio/v4/developer/toolchains/gnu_arm/4.9_2015q3/bin/../lib/gcc/arm-none-eabi/4.9.3/../../../../arm-none-eabi/lib/armv7e-m/softfp\libc.a(lib_a-malloc.o)
                0x000454f8                malloc
 .text.free     0x00045508       0x10 c:/siliconlabs/simplicitystudio/v4/developer/toolchains/gnu_arm/4.9_2015q3/bin/../lib/gcc/arm-none-eabi/4.9.3/../../../../arm-none-eabi/lib/armv7e-m/softfp\libc.a(lib_a-malloc.o)
                0x00045508                free
 .text._malloc_r
                0x00045518      0x524 c:/siliconlabs/simplicitystudio/v4/developer/toolchains/gnu_arm/4.9_2015q3/bin/../lib/gcc/arm-none-eabi/4.9.3/../../../../arm-none-eabi/lib/armv7e-m/softfp\libc.a(lib_a-mallocr.o)
                0x00045518                _malloc_r
 .text.memcmp   0x00045a3c       0x64 c:/siliconlabs/simplicitystudio/v4/developer/toolchains/gnu_arm/4.9_2015q3/bin/../lib/gcc/arm-none-eabi/4.9.3/../../../../arm-none-eabi/lib/armv7e-m/softfp\libc.a(lib_a-memcmp.o)
                0x00045a3c                memcmp
 .text          0x00045aa0      0x134 c:/siliconlabs/simplicitystudio/v4/developer/toolchains/gnu_arm/4.9_2015q3/bin/../lib/gcc/arm-none-eabi/4.9.3/../../../../arm-none-eabi/lib/armv7e-m/softfp\libc.a(lib_a-memcpy.o)
                0x00045aa0                memcpy
 .text.memmove  0x00045bd4       0xc8 c:/siliconlabs/simplicitystudio/v4/developer/toolchains/gnu_arm/4.9_2015q3/bin/../lib/gcc/arm-none-eabi/4.9.3/../../../../arm-none-eabi/lib/armv7e-m/softfp\libc.a(lib_a-memmove.o)
                0x00045bd4                memmove
 .text.memset   0x00045c9c       0x9c c:/siliconlabs/simplicitystudio/v4/developer/toolchains/gnu_arm/4.9_2015q3/bin/../lib/gcc/arm-none-eabi/4.9.3/../../../../arm-none-eabi/lib/armv7e-m/softfp\libc.a(lib_a-memset.o)
                0x00045c9c                memset
 .text.__malloc_lock
                0x00045d38        0x4 c:/siliconlabs/simplicitystudio/v4/developer/toolchains/gnu_arm/4.9_2015q3/bin/../lib/gcc/arm-none-eabi/4.9.3/../../../../arm-none-eabi/lib/armv7e-m/softfp\libc.a(lib_a-mlock.o)
                0x00045d38                __malloc_lock
 .text.__malloc_unlock
                0x00045d3c        0x4 c:/siliconlabs/simplicitystudio/v4/developer/toolchains/gnu_arm/4.9_2015q3/bin/../lib/gcc/arm-none-eabi/4.9.3/../../../../arm-none-eabi/lib/armv7e-m/softfp\libc.a(lib_a-mlock.o)
                0x00045d3c                __malloc_unlock
 .text.printf   0x00045d40       0x28 c:/siliconlabs/simplicitystudio/v4/developer/toolchains/gnu_arm/4.9_2015q3/bin/../lib/gcc/arm-none-eabi/4.9.3/../../../../arm-none-eabi/lib/armv7e-m/softfp\libc.a(lib_a-printf.o)
                0x00045d40                printf
 .text._sbrk_r  0x00045d68       0x24 c:/siliconlabs/simplicitystudio/v4/developer/toolchains/gnu_arm/4.9_2015q3/bin/../lib/gcc/arm-none-eabi/4.9.3/../../../../arm-none-eabi/lib/armv7e-m/softfp\libc.a(lib_a-sbrkr.o)
                0x00045d68                _sbrk_r
 .text.setvbuf  0x00045d8c       0xf8 c:/siliconlabs/simplicitystudio/v4/developer/toolchains/gnu_arm/4.9_2015q3/bin/../lib/gcc/arm-none-eabi/4.9.3/../../../../arm-none-eabi/lib/armv7e-m/softfp\libc.a(lib_a-setvbuf.o)
                0x00045d8c                setvbuf
 .text.sprintf  0x00045e84       0x4c c:/siliconlabs/simplicitystudio/v4/developer/toolchains/gnu_arm/4.9_2015q3/bin/../lib/gcc/arm-none-eabi/4.9.3/../../../../arm-none-eabi/lib/armv7e-m/softfp\libc.a(lib_a-sprintf.o)
                0x00045e84                sprintf
 .text.strcat   0x00045ed0       0x40 c:/siliconlabs/simplicitystudio/v4/developer/toolchains/gnu_arm/4.9_2015q3/bin/../lib/gcc/arm-none-eabi/4.9.3/../../../../arm-none-eabi/lib/armv7e-m/softfp\libc.a(lib_a-strcat.o)
                0x00045ed0                strcat
 *fill*         0x00045f10       0x10 
 .text          0x00045f20      0x2dc c:/siliconlabs/simplicitystudio/v4/developer/toolchains/gnu_arm/4.9_2015q3/bin/../lib/gcc/arm-none-eabi/4.9.3/../../../../arm-none-eabi/lib/armv7e-m/softfp\libc.a(lib_a-strcmp.o)
                0x00045f28                strcmp
 .text.strcpy   0x000461fc       0xbc c:/siliconlabs/simplicitystudio/v4/developer/toolchains/gnu_arm/4.9_2015q3/bin/../lib/gcc/arm-none-eabi/4.9.3/../../../../arm-none-eabi/lib/armv7e-m/softfp\libc.a(lib_a-strcpy.o)
                0x000461fc                strcpy
 .text.strlen   0x000462b8       0x5c c:/siliconlabs/simplicitystudio/v4/developer/toolchains/gnu_arm/4.9_2015q3/bin/../lib/gcc/arm-none-eabi/4.9.3/../../../../arm-none-eabi/lib/armv7e-m/softfp\libc.a(lib_a-strlen.o)
                0x000462b8                strlen
 *fill*         0x00046314        0x4 
 .text._svfprintf_r
                0x00046318     0x14d0 c:/siliconlabs/simplicitystudio/v4/developer/toolchains/gnu_arm/4.9_2015q3/bin/../lib/gcc/arm-none-eabi/4.9.3/../../../../arm-none-eabi/lib/armv7e-m/softfp\libc.a(lib_a-svfprintf.o)
                0x00046318                _svfprintf_r
 .text._vfprintf_r
                0x000477e8     0x1428 c:/siliconlabs/simplicitystudio/v4/developer/toolchains/gnu_arm/4.9_2015q3/bin/../lib/gcc/arm-none-eabi/4.9.3/../../../../arm-none-eabi/lib/armv7e-m/softfp\libc.a(lib_a-vfprintf.o)
                0x000477e8                _vfprintf_r
 .text.__sbprintf
                0x00048c10       0x78 c:/siliconlabs/simplicitystudio/v4/developer/toolchains/gnu_arm/4.9_2015q3/bin/../lib/gcc/arm-none-eabi/4.9.3/../../../../arm-none-eabi/lib/armv7e-m/softfp\libc.a(lib_a-vfprintf.o)
 .text.__swsetup_r
                0x00048c88       0xc4 c:/siliconlabs/simplicitystudio/v4/developer/toolchains/gnu_arm/4.9_2015q3/bin/../lib/gcc/arm-none-eabi/4.9.3/../../../../arm-none-eabi/lib/armv7e-m/softfp\libc.a(lib_a-wsetup.o)
                0x00048c88                __swsetup_r
 .text.startup.register_fini
                0x00048d4c       0x14 c:/siliconlabs/simplicitystudio/v4/developer/toolchains/gnu_arm/4.9_2015q3/bin/../lib/gcc/arm-none-eabi/4.9.3/../../../../arm-none-eabi/lib/armv7e-m/softfp\libc.a(lib_a-__call_atexit.o)
 .text.__call_exitprocs
                0x00048d60       0xd4 c:/siliconlabs/simplicitystudio/v4/developer/toolchains/gnu_arm/4.9_2015q3/bin/../lib/gcc/arm-none-eabi/4.9.3/../../../../arm-none-eabi/lib/armv7e-m/softfp\libc.a(lib_a-__call_atexit.o)
                0x00048d60                __call_exitprocs
 .text.atexit   0x00048e34        0xc c:/siliconlabs/simplicitystudio/v4/developer/toolchains/gnu_arm/4.9_2015q3/bin/../lib/gcc/arm-none-eabi/4.9.3/../../../../arm-none-eabi/lib/armv7e-m/softfp\libc.a(lib_a-atexit.o)
                0x00048e34                atexit
 .text.quorem   0x00048e40      0x12c c:/siliconlabs/simplicitystudio/v4/developer/toolchains/gnu_arm/4.9_2015q3/bin/../lib/gcc/arm-none-eabi/4.9.3/../../../../arm-none-eabi/lib/armv7e-m/softfp\libc.a(lib_a-dtoa.o)
 *fill*         0x00048f6c        0x4 
 .text._dtoa_r  0x00048f70      0xe90 c:/siliconlabs/simplicitystudio/v4/developer/toolchains/gnu_arm/4.9_2015q3/bin/../lib/gcc/arm-none-eabi/4.9.3/../../../../arm-none-eabi/lib/armv7e-m/softfp\libc.a(lib_a-dtoa.o)
                0x00048f70                _dtoa_r
 .text.__sflush_r
                0x00049e00      0x154 c:/siliconlabs/simplicitystudio/v4/developer/toolchains/gnu_arm/4.9_2015q3/bin/../lib/gcc/arm-none-eabi/4.9.3/../../../../arm-none-eabi/lib/armv7e-m/softfp\libc.a(lib_a-fflush.o)
                0x00049e00                __sflush_r
 .text._fflush_r
                0x00049f54       0x2c c:/siliconlabs/simplicitystudio/v4/developer/toolchains/gnu_arm/4.9_2015q3/bin/../lib/gcc/arm-none-eabi/4.9.3/../../../../arm-none-eabi/lib/armv7e-m/softfp\libc.a(lib_a-fflush.o)
                0x00049f54                _fflush_r
 .text._cleanup_r
                0x00049f80        0xc c:/siliconlabs/simplicitystudio/v4/developer/toolchains/gnu_arm/4.9_2015q3/bin/../lib/gcc/arm-none-eabi/4.9.3/../../../../arm-none-eabi/lib/armv7e-m/softfp\libc.a(lib_a-findfp.o)
                0x00049f80                _cleanup_r
 .text.__sinit.part.1
                0x00049f8c       0xf0 c:/siliconlabs/simplicitystudio/v4/developer/toolchains/gnu_arm/4.9_2015q3/bin/../lib/gcc/arm-none-eabi/4.9.3/../../../../arm-none-eabi/lib/armv7e-m/softfp\libc.a(lib_a-findfp.o)
 .text.__sinit  0x0004a07c        0xc c:/siliconlabs/simplicitystudio/v4/developer/toolchains/gnu_arm/4.9_2015q3/bin/../lib/gcc/arm-none-eabi/4.9.3/../../../../arm-none-eabi/lib/armv7e-m/softfp\libc.a(lib_a-findfp.o)
                0x0004a07c                __sinit
 .text.__sfp_lock_acquire
                0x0004a088        0x4 c:/siliconlabs/simplicitystudio/v4/developer/toolchains/gnu_arm/4.9_2015q3/bin/../lib/gcc/arm-none-eabi/4.9.3/../../../../arm-none-eabi/lib/armv7e-m/softfp\libc.a(lib_a-findfp.o)
                0x0004a088                __sfp_lock_acquire
 .text.__sfp_lock_release
                0x0004a08c        0x4 c:/siliconlabs/simplicitystudio/v4/developer/toolchains/gnu_arm/4.9_2015q3/bin/../lib/gcc/arm-none-eabi/4.9.3/../../../../arm-none-eabi/lib/armv7e-m/softfp\libc.a(lib_a-findfp.o)
                0x0004a08c                __sfp_lock_release
 .text.__libc_fini_array
                0x0004a090       0x2c c:/siliconlabs/simplicitystudio/v4/developer/toolchains/gnu_arm/4.9_2015q3/bin/../lib/gcc/arm-none-eabi/4.9.3/../../../../arm-none-eabi/lib/armv7e-m/softfp\libc.a(lib_a-fini.o)
                0x0004a090                __libc_fini_array
 .text._malloc_trim_r
                0x0004a0bc       0x9c c:/siliconlabs/simplicitystudio/v4/developer/toolchains/gnu_arm/4.9_2015q3/bin/../lib/gcc/arm-none-eabi/4.9.3/../../../../arm-none-eabi/lib/armv7e-m/softfp\libc.a(lib_a-freer.o)
                0x0004a0bc                _malloc_trim_r
 .text._free_r  0x0004a158      0x1b0 c:/siliconlabs/simplicitystudio/v4/developer/toolchains/gnu_arm/4.9_2015q3/bin/../lib/gcc/arm-none-eabi/4.9.3/../../../../arm-none-eabi/lib/armv7e-m/softfp\libc.a(lib_a-freer.o)
                0x0004a158                _free_r
 .text._fwalk_reent
                0x0004a308       0x54 c:/siliconlabs/simplicitystudio/v4/developer/toolchains/gnu_arm/4.9_2015q3/bin/../lib/gcc/arm-none-eabi/4.9.3/../../../../arm-none-eabi/lib/armv7e-m/softfp\libc.a(lib_a-fwalk.o)
                0x0004a308                _fwalk_reent
 .text.__locale_charset
                0x0004a35c        0x8 c:/siliconlabs/simplicitystudio/v4/developer/toolchains/gnu_arm/4.9_2015q3/bin/../lib/gcc/arm-none-eabi/4.9.3/../../../../arm-none-eabi/lib/armv7e-m/softfp\libc.a(lib_a-locale.o)
                0x0004a35c                __locale_charset
 .text.__locale_mb_cur_max
                0x0004a364        0xc c:/siliconlabs/simplicitystudio/v4/developer/toolchains/gnu_arm/4.9_2015q3/bin/../lib/gcc/arm-none-eabi/4.9.3/../../../../arm-none-eabi/lib/armv7e-m/softfp\libc.a(lib_a-locale.o)
                0x0004a364                __locale_mb_cur_max
 .text._localeconv_r
                0x0004a370        0x8 c:/siliconlabs/simplicitystudio/v4/developer/toolchains/gnu_arm/4.9_2015q3/bin/../lib/gcc/arm-none-eabi/4.9.3/../../../../arm-none-eabi/lib/armv7e-m/softfp\libc.a(lib_a-locale.o)
                0x0004a370                _localeconv_r
 .text.__smakebuf_r
                0x0004a378       0xe0 c:/siliconlabs/simplicitystudio/v4/developer/toolchains/gnu_arm/4.9_2015q3/bin/../lib/gcc/arm-none-eabi/4.9.3/../../../../arm-none-eabi/lib/armv7e-m/softfp\libc.a(lib_a-makebuf.o)
                0x0004a378                __smakebuf_r
 .text.memchr   0x0004a458       0x94 c:/siliconlabs/simplicitystudio/v4/developer/toolchains/gnu_arm/4.9_2015q3/bin/../lib/gcc/arm-none-eabi/4.9.3/../../../../arm-none-eabi/lib/armv7e-m/softfp\libc.a(lib_a-memchr.o)
                0x0004a458                memchr
 .text._Balloc  0x0004a4ec       0x4c c:/siliconlabs/simplicitystudio/v4/developer/toolchains/gnu_arm/4.9_2015q3/bin/../lib/gcc/arm-none-eabi/4.9.3/../../../../arm-none-eabi/lib/armv7e-m/softfp\libc.a(lib_a-mprec.o)
                0x0004a4ec                _Balloc
 .text._Bfree   0x0004a538       0x14 c:/siliconlabs/simplicitystudio/v4/developer/toolchains/gnu_arm/4.9_2015q3/bin/../lib/gcc/arm-none-eabi/4.9.3/../../../../arm-none-eabi/lib/armv7e-m/softfp\libc.a(lib_a-mprec.o)
                0x0004a538                _Bfree
 .text.__multadd
                0x0004a54c       0x84 c:/siliconlabs/simplicitystudio/v4/developer/toolchains/gnu_arm/4.9_2015q3/bin/../lib/gcc/arm-none-eabi/4.9.3/../../../../arm-none-eabi/lib/armv7e-m/softfp\libc.a(lib_a-mprec.o)
                0x0004a54c                __multadd
 .text.__hi0bits
                0x0004a5d0       0x40 c:/siliconlabs/simplicitystudio/v4/developer/toolchains/gnu_arm/4.9_2015q3/bin/../lib/gcc/arm-none-eabi/4.9.3/../../../../arm-none-eabi/lib/armv7e-m/softfp\libc.a(lib_a-mprec.o)
                0x0004a5d0                __hi0bits
 .text.__lo0bits
                0x0004a610       0x5c c:/siliconlabs/simplicitystudio/v4/developer/toolchains/gnu_arm/4.9_2015q3/bin/../lib/gcc/arm-none-eabi/4.9.3/../../../../arm-none-eabi/lib/armv7e-m/softfp\libc.a(lib_a-mprec.o)
                0x0004a610                __lo0bits
 .text.__i2b    0x0004a66c       0x14 c:/siliconlabs/simplicitystudio/v4/developer/toolchains/gnu_arm/4.9_2015q3/bin/../lib/gcc/arm-none-eabi/4.9.3/../../../../arm-none-eabi/lib/armv7e-m/softfp\libc.a(lib_a-mprec.o)
                0x0004a66c                __i2b
 .text.__multiply
                0x0004a680      0x134 c:/siliconlabs/simplicitystudio/v4/developer/toolchains/gnu_arm/4.9_2015q3/bin/../lib/gcc/arm-none-eabi/4.9.3/../../../../arm-none-eabi/lib/armv7e-m/softfp\libc.a(lib_a-mprec.o)
                0x0004a680                __multiply
 .text.__pow5mult
                0x0004a7b4       0xa0 c:/siliconlabs/simplicitystudio/v4/developer/toolchains/gnu_arm/4.9_2015q3/bin/../lib/gcc/arm-none-eabi/4.9.3/../../../../arm-none-eabi/lib/armv7e-m/softfp\libc.a(lib_a-mprec.o)
                0x0004a7b4                __pow5mult
 .text.__lshift
                0x0004a854       0xac c:/siliconlabs/simplicitystudio/v4/developer/toolchains/gnu_arm/4.9_2015q3/bin/../lib/gcc/arm-none-eabi/4.9.3/../../../../arm-none-eabi/lib/armv7e-m/softfp\libc.a(lib_a-mprec.o)
                0x0004a854                __lshift
 .text.__mcmp   0x0004a900       0x48 c:/siliconlabs/simplicitystudio/v4/developer/toolchains/gnu_arm/4.9_2015q3/bin/../lib/gcc/arm-none-eabi/4.9.3/../../../../arm-none-eabi/lib/armv7e-m/softfp\libc.a(lib_a-mprec.o)
                0x0004a900                __mcmp
 .text.__mdiff  0x0004a948       0xd4 c:/siliconlabs/simplicitystudio/v4/developer/toolchains/gnu_arm/4.9_2015q3/bin/../lib/gcc/arm-none-eabi/4.9.3/../../../../arm-none-eabi/lib/armv7e-m/softfp\libc.a(lib_a-mprec.o)
                0x0004a948                __mdiff
 .text.__d2b    0x0004aa1c       0xb8 c:/siliconlabs/simplicitystudio/v4/developer/toolchains/gnu_arm/4.9_2015q3/bin/../lib/gcc/arm-none-eabi/4.9.3/../../../../arm-none-eabi/lib/armv7e-m/softfp\libc.a(lib_a-mprec.o)
                0x0004aa1c                __d2b
 .text.__sread  0x0004aad4       0x24 c:/siliconlabs/simplicitystudio/v4/developer/toolchains/gnu_arm/4.9_2015q3/bin/../lib/gcc/arm-none-eabi/4.9.3/../../../../arm-none-eabi/lib/armv7e-m/softfp\libc.a(lib_a-stdio.o)
                0x0004aad4                __sread
 .text.__swrite
                0x0004aaf8       0x38 c:/siliconlabs/simplicitystudio/v4/developer/toolchains/gnu_arm/4.9_2015q3/bin/../lib/gcc/arm-none-eabi/4.9.3/../../../../arm-none-eabi/lib/armv7e-m/softfp\libc.a(lib_a-stdio.o)
                0x0004aaf8                __swrite
 .text.__sseek  0x0004ab30       0x20 c:/siliconlabs/simplicitystudio/v4/developer/toolchains/gnu_arm/4.9_2015q3/bin/../lib/gcc/arm-none-eabi/4.9.3/../../../../arm-none-eabi/lib/armv7e-m/softfp\libc.a(lib_a-stdio.o)
                0x0004ab30                __sseek
 .text.__sclose
                0x0004ab50        0x8 c:/siliconlabs/simplicitystudio/v4/developer/toolchains/gnu_arm/4.9_2015q3/bin/../lib/gcc/arm-none-eabi/4.9.3/../../../../arm-none-eabi/lib/armv7e-m/softfp\libc.a(lib_a-stdio.o)
                0x0004ab50                __sclose
 .text.__ssprint_r
                0x0004ab58      0x104 c:/siliconlabs/simplicitystudio/v4/developer/toolchains/gnu_arm/4.9_2015q3/bin/../lib/gcc/arm-none-eabi/4.9.3/../../../../arm-none-eabi/lib/armv7e-m/softfp\libc.a(lib_a-svfiprintf.o)
                0x0004ab58                __ssprint_r
 .text.__sprint_r.part.0
                0x0004ac5c       0x78 c:/siliconlabs/simplicitystudio/v4/developer/toolchains/gnu_arm/4.9_2015q3/bin/../lib/gcc/arm-none-eabi/4.9.3/../../../../arm-none-eabi/lib/armv7e-m/softfp\libc.a(lib_a-vfiprintf.o)
 .text.__sprint_r
                0x0004acd4       0x18 c:/siliconlabs/simplicitystudio/v4/developer/toolchains/gnu_arm/4.9_2015q3/bin/../lib/gcc/arm-none-eabi/4.9.3/../../../../arm-none-eabi/lib/armv7e-m/softfp\libc.a(lib_a-vfiprintf.o)
                0x0004acd4                __sprint_r
 .text._write_r
                0x0004acec       0x28 c:/siliconlabs/simplicitystudio/v4/developer/toolchains/gnu_arm/4.9_2015q3/bin/../lib/gcc/arm-none-eabi/4.9.3/../../../../arm-none-eabi/lib/armv7e-m/softfp\libc.a(lib_a-writer.o)
                0x0004acec                _write_r
 .text.__register_exitproc
                0x0004ad14       0xa4 c:/siliconlabs/simplicitystudio/v4/developer/toolchains/gnu_arm/4.9_2015q3/bin/../lib/gcc/arm-none-eabi/4.9.3/../../../../arm-none-eabi/lib/armv7e-m/softfp\libc.a(lib_a-__atexit.o)
                0x0004ad14                __register_exitproc
 .text._calloc_r
                0x0004adb8       0x60 c:/siliconlabs/simplicitystudio/v4/developer/toolchains/gnu_arm/4.9_2015q3/bin/../lib/gcc/arm-none-eabi/4.9.3/../../../../arm-none-eabi/lib/armv7e-m/softfp\libc.a(lib_a-callocr.o)
                0x0004adb8                _calloc_r
 .text._close_r
                0x0004ae18       0x24 c:/siliconlabs/simplicitystudio/v4/developer/toolchains/gnu_arm/4.9_2015q3/bin/../lib/gcc/arm-none-eabi/4.9.3/../../../../arm-none-eabi/lib/armv7e-m/softfp\libc.a(lib_a-closer.o)
                0x0004ae18                _close_r
 .text._fclose_r
                0x0004ae3c       0x84 c:/siliconlabs/simplicitystudio/v4/developer/toolchains/gnu_arm/4.9_2015q3/bin/../lib/gcc/arm-none-eabi/4.9.3/../../../../arm-none-eabi/lib/armv7e-m/softfp\libc.a(lib_a-fclose.o)
                0x0004ae3c                _fclose_r
 .text.__fputwc
                0x0004aec0       0xb0 c:/siliconlabs/simplicitystudio/v4/developer/toolchains/gnu_arm/4.9_2015q3/bin/../lib/gcc/arm-none-eabi/4.9.3/../../../../arm-none-eabi/lib/armv7e-m/softfp\libc.a(lib_a-fputwc.o)
                0x0004aec0                __fputwc
 .text._fputwc_r
                0x0004af70       0x24 c:/siliconlabs/simplicitystudio/v4/developer/toolchains/gnu_arm/4.9_2015q3/bin/../lib/gcc/arm-none-eabi/4.9.3/../../../../arm-none-eabi/lib/armv7e-m/softfp\libc.a(lib_a-fputwc.o)
                0x0004af70                _fputwc_r
 .text._fstat_r
                0x0004af94       0x28 c:/siliconlabs/simplicitystudio/v4/developer/toolchains/gnu_arm/4.9_2015q3/bin/../lib/gcc/arm-none-eabi/4.9.3/../../../../arm-none-eabi/lib/armv7e-m/softfp\libc.a(lib_a-fstatr.o)
                0x0004af94                _fstat_r
 .text.__sfvwrite_r
                0x0004afbc      0x318 c:/siliconlabs/simplicitystudio/v4/developer/toolchains/gnu_arm/4.9_2015q3/bin/../lib/gcc/arm-none-eabi/4.9.3/../../../../arm-none-eabi/lib/armv7e-m/softfp\libc.a(lib_a-fvwrite.o)
                0x0004afbc                __sfvwrite_r
 .text._isatty_r
                0x0004b2d4       0x24 c:/siliconlabs/simplicitystudio/v4/developer/toolchains/gnu_arm/4.9_2015q3/bin/../lib/gcc/arm-none-eabi/4.9.3/../../../../arm-none-eabi/lib/armv7e-m/softfp\libc.a(lib_a-isattyr.o)
                0x0004b2d4                _isatty_r
 .text._lseek_r
                0x0004b2f8       0x28 c:/siliconlabs/simplicitystudio/v4/developer/toolchains/gnu_arm/4.9_2015q3/bin/../lib/gcc/arm-none-eabi/4.9.3/../../../../arm-none-eabi/lib/armv7e-m/softfp\libc.a(lib_a-lseekr.o)
                0x0004b2f8                _lseek_r
 .text._read_r  0x0004b320       0x28 c:/siliconlabs/simplicitystudio/v4/developer/toolchains/gnu_arm/4.9_2015q3/bin/../lib/gcc/arm-none-eabi/4.9.3/../../../../arm-none-eabi/lib/armv7e-m/softfp\libc.a(lib_a-readr.o)
                0x0004b320                _read_r
 .text._realloc_r
                0x0004b348      0x3ec c:/siliconlabs/simplicitystudio/v4/developer/toolchains/gnu_arm/4.9_2015q3/bin/../lib/gcc/arm-none-eabi/4.9.3/../../../../arm-none-eabi/lib/armv7e-m/softfp\libc.a(lib_a-reallocr.o)
                0x0004b348                _realloc_r
 .text.__swbuf_r
                0x0004b734       0xa8 c:/siliconlabs/simplicitystudio/v4/developer/toolchains/gnu_arm/4.9_2015q3/bin/../lib/gcc/arm-none-eabi/4.9.3/../../../../arm-none-eabi/lib/armv7e-m/softfp\libc.a(lib_a-wbuf.o)
                0x0004b734                __swbuf_r
 .text._wcrtomb_r
                0x0004b7dc       0x54 c:/siliconlabs/simplicitystudio/v4/developer/toolchains/gnu_arm/4.9_2015q3/bin/../lib/gcc/arm-none-eabi/4.9.3/../../../../arm-none-eabi/lib/armv7e-m/softfp\libc.a(lib_a-wcrtomb.o)
                0x0004b7dc                _wcrtomb_r
 .text.__ascii_wctomb
                0x0004b830       0x1c c:/siliconlabs/simplicitystudio/v4/developer/toolchains/gnu_arm/4.9_2015q3/bin/../lib/gcc/arm-none-eabi/4.9.3/../../../../arm-none-eabi/lib/armv7e-m/softfp\libc.a(lib_a-wctomb_r.o)
                0x0004b830                __ascii_wctomb
 .text          0x0004b84c       0x50 c:/siliconlabs/simplicitystudio/v4/developer/toolchains/gnu_arm/4.9_2015q3/bin/../lib/gcc/arm-none-eabi/4.9.3/armv7e-m/softfp\libgcc.a(_arm_fixdfsi.o)
                0x0004b84c                __aeabi_d2iz
                0x0004b84c                __fixdfsi
 *(.init)
 .init          0x0004b89c        0x4 c:/siliconlabs/simplicitystudio/v4/developer/toolchains/gnu_arm/4.9_2015q3/bin/../lib/gcc/arm-none-eabi/4.9.3/armv7e-m/softfp/crti.o
                0x0004b89c                _init
 .init          0x0004b8a0        0x8 c:/siliconlabs/simplicitystudio/v4/developer/toolchains/gnu_arm/4.9_2015q3/bin/../lib/gcc/arm-none-eabi/4.9.3/armv7e-m/softfp/crtn.o
 *(.fini)
 .fini          0x0004b8a8        0x4 c:/siliconlabs/simplicitystudio/v4/developer/toolchains/gnu_arm/4.9_2015q3/bin/../lib/gcc/arm-none-eabi/4.9.3/armv7e-m/softfp/crti.o
                0x0004b8a8                _fini
 .fini          0x0004b8ac        0x8 c:/siliconlabs/simplicitystudio/v4/developer/toolchains/gnu_arm/4.9_2015q3/bin/../lib/gcc/arm-none-eabi/4.9.3/armv7e-m/softfp/crtn.o
 *fill*         0x0004b8b4        0x4 
 .fini.__stub   0x0004b8b8       0x20 linker stubs
 *crtbegin.o(.ctors)
 *crtbegin?.o(.ctors)
 *(EXCLUDE_FILE(*crtend.o *crtend?.o) .ctors)
 *(SORT(.ctors.*))
 *(.ctors)
 *crtbegin.o(.dtors)
 *crtbegin?.o(.dtors)
 *(EXCLUDE_FILE(*crtend.o *crtend?.o) .dtors)
 *(SORT(.dtors.*))
 *(.dtors)
 *(.rodata*)
 .rodata.__mesh_dcd
                0x0004b8d8       0x1a ./dcd_switch.o
                0x0004b8d8                __mesh_dcd
 *fill*         0x0004b8f2        0x2 
 .rodata.__mesh_dcd_len
                0x0004b8f4        0x4 ./dcd_switch.o
                0x0004b8f4                __mesh_dcd_len
 .rodata.config
                0x0004b8f8       0x38 ./main.o
                0x0004b8f8                config
 .rodata.str1.4
                0x0004b930      0x800 ./main.o
                                0x814 (size before relaxing)
 .rodata        0x0004c130       0x14 ./pti.o
 .rodata.CSWTCH.50
                0x0004c144        0x5 ./emlib/em_cmu.o
 *fill*         0x0004c149        0x3 
 .rodata.CSWTCH.51
                0x0004c14c        0x5 ./emlib/em_cmu.o
 *fill*         0x0004c151        0x3 
 .rodata.CSWTCH.52
                0x0004c154        0x5 ./emlib/em_cmu.o
 *fill*         0x0004c159        0x3 
 .rodata.CSWTCH.49
                0x0004c15c        0x3 ./emlib/em_cmu.o
 *fill*         0x0004c15f        0x1 
 .rodata.flashWsTable
                0x0004c160       0x28 ./emlib/em_cmu.o
 .rodata.i2cNSum
                0x0004c188        0x4 ./emlib/em_i2c.o
 .rodata.resetCauseMasks
                0x0004c18c       0x48 ./emlib/em_rmu.o
 .rodata.GLIB_FontNormal8x8
                0x0004c1d4       0x10 ./glib/BRD4104A/glib_font_normal_8x8.o
                0x0004c1d4                GLIB_FontNormal8x8
 .rodata.GLIB_FontNormal8x8PixMap
                0x0004c1e4      0x320 ./glib/BRD4104A/glib_font_normal_8x8.o
 .rodata        0x0004c504        0x9 ./kit/BRD4104A/udelay.o
 *fill*         0x0004c50d        0x3 
 .rodata        0x0004c510       0x18 ./kit_flashpwr/BRD4104A/mx25flash_spi.o
 .rodata.str1.4
                0x0004c528       0x15 ./kit_lcd/BRD4104A/displayls013b7dh03.o
 *fill*         0x0004c53d        0x3 
 .rodata        0x0004c540       0x18 ./kit_lcd/BRD4104A/displaypalemlib.o
 .rodata        0x0004c558       0x1c ./serial_vcom/retargetserial.o
 .rodata        0x0004c574       0x31 ./src/InitDevice.o
 *fill*         0x0004c5a5        0x3 
 .rodata        0x0004c5a8       0x10 ./src/i2c.o
 .rodata        0x0004c5b8       0x10 ./stack/bt_mesh_stack/mesh_lib.o
 .rodata.str1.4
                0x0004c5c8        0x4 c:/siliconlabs/simplicitystudio/v4/developer/toolchains/gnu_arm/4.9_2015q3/bin/../lib/gcc/arm-none-eabi/4.9.3/../../../../arm-none-eabi/lib/armv7e-m/softfp\libm.a(lib_a-w_pow.o)
 *fill*         0x0004c5cc        0x4 
 .rodata.dp_h   0x0004c5d0       0x10 c:/siliconlabs/simplicitystudio/v4/developer/toolchains/gnu_arm/4.9_2015q3/bin/../lib/gcc/arm-none-eabi/4.9.3/../../../../arm-none-eabi/lib/armv7e-m/softfp\libm.a(lib_a-e_pow.o)
 .rodata.dp_l   0x0004c5e0       0x10 c:/siliconlabs/simplicitystudio/v4/developer/toolchains/gnu_arm/4.9_2015q3/bin/../lib/gcc/arm-none-eabi/4.9.3/../../../../arm-none-eabi/lib/armv7e-m/softfp\libm.a(lib_a-e_pow.o)
 .rodata.bp     0x0004c5f0       0x10 c:/siliconlabs/simplicitystudio/v4/developer/toolchains/gnu_arm/4.9_2015q3/bin/../lib/gcc/arm-none-eabi/4.9.3/../../../../arm-none-eabi/lib/armv7e-m/softfp\libm.a(lib_a-e_pow.o)
 .rodata.str1.4
                0x00000000        0x1 c:/siliconlabs/simplicitystudio/v4/developer/toolchains/gnu_arm/4.9_2015q3/bin/../lib/gcc/arm-none-eabi/4.9.3/../../../../arm-none-eabi/lib/armv7e-m/softfp\libm.a(lib_a-e_pow.o)
 .rodata.TWO52  0x0004c600       0x10 c:/siliconlabs/simplicitystudio/v4/developer/toolchains/gnu_arm/4.9_2015q3/bin/../lib/gcc/arm-none-eabi/4.9.3/../../../../arm-none-eabi/lib/armv7e-m/softfp\libm.a(lib_a-s_rint.o)
 .rodata        0x0004c610     0x26a8 C:/SiliconLabs/SimplicityStudio/v4/developer/sdks/blemesh/v1.1//protocol/bluetooth_dev/lib/EFR32XG13X/GCC/\libbluetooth_mesh.a
 .rodata.str1.1
                0x0004ecb8      0x359 C:/SiliconLabs/SimplicityStudio/v4/developer/sdks/blemesh/v1.1//protocol/bluetooth_dev/lib/EFR32XG13X/GCC/\libbluetooth_mesh.a
                                0x46c (size before relaxing)
 *fill*         0x0004f011        0x1 
 .rodata.ll_timingEfr32xg13Timing
                0x0004f012       0x28 C:/SiliconLabs/SimplicityStudio/v4/developer/sdks/blemesh/v1.1//protocol/bluetooth_dev/lib/EFR32XG13X/GCC/\libbluetooth_mesh.a
 *fill*         0x0004f03a        0x2 
 .rodata.ll_radioScaToPpm
                0x0004f03c       0x24 C:/SiliconLabs/SimplicityStudio/v4/developer/sdks/blemesh/v1.1//protocol/bluetooth_dev/lib/EFR32XG13X/GCC/\libbluetooth_mesh.a
 .rodata.ble_1M_irCalConfig
                0x0004f060       0x19 C:/SiliconLabs/SimplicityStudio/v4/developer/sdks/blemesh/v1.1//protocol/bluetooth_dev/lib/EFR32XG13X/GCC/\libbluetooth_mesh.a
 *fill*         0x0004f079        0x3 
 .rodata.ble_1M_timing
                0x0004f07c       0x18 C:/SiliconLabs/SimplicityStudio/v4/developer/sdks/blemesh/v1.1//protocol/bluetooth_dev/lib/EFR32XG13X/GCC/\libbluetooth_mesh.a
 *fill*         0x0004f094       0x6c 
 .rodata.genericSeqProg
                0x0004f100     0x115c C:/SiliconLabs/SimplicityStudio/v4/developer/sdks/blemesh/v1.1//protocol/bluetooth_dev/lib/EFR32XG13X/GCC/\libbluetooth_mesh.a
 .rodata.mbedtls_cipher_definitions
                0x0005025c       0x50 C:/SiliconLabs/SimplicityStudio/v4/developer/sdks/blemesh/v1.1//protocol/bluetooth_dev/lib/EFR32XG13X/GCC/\libbluetooth_mesh.a
 .rodata.curvesSgDcdc
                0x000502ac        0x8 C:/SiliconLabs/SimplicityStudio/v4/developer/sdks/blemesh/v1.1//protocol/bluetooth_dev/lib/EFR32XG13X/GCC/\libbluetooth_mesh.a
 .rodata.curvesSgVbat
                0x000502b4        0x8 C:/SiliconLabs/SimplicityStudio/v4/developer/sdks/blemesh/v1.1//protocol/bluetooth_dev/lib/EFR32XG13X/GCC/\libbluetooth_mesh.a
 .rodata.curves24LpVbat
                0x000502bc        0xe C:/SiliconLabs/SimplicityStudio/v4/developer/sdks/blemesh/v1.1//protocol/bluetooth_dev/lib/EFR32XG13X/GCC/\libbluetooth_mesh.a
 *fill*         0x000502ca        0x2 
 .rodata.curves24HpVbat
                0x000502cc        0x8 C:/SiliconLabs/SimplicityStudio/v4/developer/sdks/blemesh/v1.1//protocol/bluetooth_dev/lib/EFR32XG13X/GCC/\libbluetooth_mesh.a
 .rodata.curves24LpDcdc
                0x000502d4        0xe C:/SiliconLabs/SimplicityStudio/v4/developer/sdks/blemesh/v1.1//protocol/bluetooth_dev/lib/EFR32XG13X/GCC/\libbluetooth_mesh.a
 *fill*         0x000502e2        0x2 
 .rodata.curves24HpDcdc
                0x000502e4        0x8 C:/SiliconLabs/SimplicityStudio/v4/developer/sdks/blemesh/v1.1//protocol/bluetooth_dev/lib/EFR32XG13X/GCC/\libbluetooth_mesh.a
 .rodata.str1.4
                0x000502ec        0x2 c:/siliconlabs/simplicitystudio/v4/developer/toolchains/gnu_arm/4.9_2015q3/bin/../lib/gcc/arm-none-eabi/4.9.3/../../../../arm-none-eabi/lib/armv7e-m/softfp\libc.a(lib_a-impure.o)
 *fill*         0x000502ee        0x2 
 .rodata._global_impure_ptr
                0x000502f0        0x4 c:/siliconlabs/simplicitystudio/v4/developer/toolchains/gnu_arm/4.9_2015q3/bin/../lib/gcc/arm-none-eabi/4.9.3/../../../../arm-none-eabi/lib/armv7e-m/softfp\libc.a(lib_a-impure.o)
                0x000502f0                _global_impure_ptr
 .rodata.zeroes.6911
                0x000502f4       0x10 c:/siliconlabs/simplicitystudio/v4/developer/toolchains/gnu_arm/4.9_2015q3/bin/../lib/gcc/arm-none-eabi/4.9.3/../../../../arm-none-eabi/lib/armv7e-m/softfp\libc.a(lib_a-svfprintf.o)
 .rodata.blanks.6910
                0x00050304       0x10 c:/siliconlabs/simplicitystudio/v4/developer/toolchains/gnu_arm/4.9_2015q3/bin/../lib/gcc/arm-none-eabi/4.9.3/../../../../arm-none-eabi/lib/armv7e-m/softfp\libc.a(lib_a-svfprintf.o)
 .rodata.str1.4
                0x00050314       0x42 c:/siliconlabs/simplicitystudio/v4/developer/toolchains/gnu_arm/4.9_2015q3/bin/../lib/gcc/arm-none-eabi/4.9.3/../../../../arm-none-eabi/lib/armv7e-m/softfp\libc.a(lib_a-svfprintf.o)
 *fill*         0x00050356        0x2 
 .rodata.zeroes.6926
                0x00050358       0x10 c:/siliconlabs/simplicitystudio/v4/developer/toolchains/gnu_arm/4.9_2015q3/bin/../lib/gcc/arm-none-eabi/4.9.3/../../../../arm-none-eabi/lib/armv7e-m/softfp\libc.a(lib_a-vfprintf.o)
 .rodata.str1.4
                0x00000000       0x42 c:/siliconlabs/simplicitystudio/v4/developer/toolchains/gnu_arm/4.9_2015q3/bin/../lib/gcc/arm-none-eabi/4.9.3/../../../../arm-none-eabi/lib/armv7e-m/softfp\libc.a(lib_a-vfprintf.o)
 .rodata.blanks.6925
                0x00050368       0x10 c:/siliconlabs/simplicitystudio/v4/developer/toolchains/gnu_arm/4.9_2015q3/bin/../lib/gcc/arm-none-eabi/4.9.3/../../../../arm-none-eabi/lib/armv7e-m/softfp\libc.a(lib_a-vfprintf.o)
 .rodata.str1.4
                0x00050378       0x10 c:/siliconlabs/simplicitystudio/v4/developer/toolchains/gnu_arm/4.9_2015q3/bin/../lib/gcc/arm-none-eabi/4.9.3/../../../../arm-none-eabi/lib/armv7e-m/softfp\libc.a(lib_a-dtoa.o)
                                 0x12 (size before relaxing)
 .rodata.str1.4
                0x00050388        0xc c:/siliconlabs/simplicitystudio/v4/developer/toolchains/gnu_arm/4.9_2015q3/bin/../lib/gcc/arm-none-eabi/4.9.3/../../../../arm-none-eabi/lib/armv7e-m/softfp\libc.a(lib_a-locale.o)
                                 0x12 (size before relaxing)
 *fill*         0x00050394        0x4 
 .rodata.__mprec_tens
                0x00050398       0xc8 c:/siliconlabs/simplicitystudio/v4/developer/toolchains/gnu_arm/4.9_2015q3/bin/../lib/gcc/arm-none-eabi/4.9.3/../../../../arm-none-eabi/lib/armv7e-m/softfp\libc.a(lib_a-mprec.o)
                0x00050398                __mprec_tens
 .rodata.p05.5302
                0x00050460        0xc c:/siliconlabs/simplicitystudio/v4/developer/toolchains/gnu_arm/4.9_2015q3/bin/../lib/gcc/arm-none-eabi/4.9.3/../../../../arm-none-eabi/lib/armv7e-m/softfp\libc.a(lib_a-mprec.o)
 *fill*         0x0005046c        0x4 
 .rodata.__mprec_bigtens
                0x00050470       0x28 c:/siliconlabs/simplicitystudio/v4/developer/toolchains/gnu_arm/4.9_2015q3/bin/../lib/gcc/arm-none-eabi/4.9.3/../../../../arm-none-eabi/lib/armv7e-m/softfp\libc.a(lib_a-mprec.o)
                0x00050470                __mprec_bigtens
 *(.eh_frame*)
 .eh_frame      0x00050498        0x0 c:/siliconlabs/simplicitystudio/v4/developer/toolchains/gnu_arm/4.9_2015q3/bin/../lib/gcc/arm-none-eabi/4.9.3/armv7e-m/softfp/crtbegin.o
 .eh_frame      0x00050498       0x70 c:/siliconlabs/simplicitystudio/v4/developer/toolchains/gnu_arm/4.9_2015q3/bin/../lib/gcc/arm-none-eabi/4.9.3/../../../../arm-none-eabi/lib/armv7e-m/softfp\libc.a(lib_a-strcmp.o)
 .eh_frame      0x00050508        0x4 c:/siliconlabs/simplicitystudio/v4/developer/toolchains/gnu_arm/4.9_2015q3/bin/../lib/gcc/arm-none-eabi/4.9.3/armv7e-m/softfp/crtend.o

.gatt_data      0x0005050c      0x1aa
 .gatt_data     0x0005050c      0x1aa ./gatt_db.o
                0x0005050c                bg_gattdb_data_adv_uuid128_map
                0x00050510                bg_gattdb_data_adv_uuid16_map
                0x00050514                bg_gattdb_data_attributes_dynamic_mapping_map
                0x00050520                bg_gattdb_data_attributes_map
                0x00050610                bg_gattdb_data_attribute_field_0
                0x00050614                bg_gattdb_data_attribute_field_1
                0x0005061c                bg_gattdb_data_attribute_field_2
                0x00050624                bg_gattdb_data_attribute_field_3
                0x0005062c                bg_gattdb_data_attribute_field_4
                0x00050630                bg_gattdb_data_attribute_field_5
                0x00050634                bg_gattdb_data_attribute_field_6
                0x0005063c                bg_gattdb_data_attribute_field_7
                0x0005064c                bg_gattdb_data_attribute_field_8
                0x00050650                bg_gattdb_data_attribute_field_9
                0x00050658                bg_gattdb_data_attribute_field_10
                0x00050660                bg_gattdb_data_attribute_field_11
                0x00050668                bg_gattdb_data_attribute_field_12
                0x00050670                bg_gattdb_data_attribute_field_14
                0x00050674                bg_gattdb_data_attribute_field_15
                0x0005067c                bg_gattdb_data_attribute_field_16
                0x00050684                bg_gattdb_data_attribute_field_17
                0x0005068c                bg_gattdb_data_attribute_field_18
                0x00050694                bg_gattdb_data_uuidtable_128_map
                0x00050698                bg_gattdb_data_uuidtable_16_map

.gatt_header    0x000506b8       0x34
 .gatt_header   0x000506b8       0x34 ./gatt_db.o
                0x000506b8                bg_gattdb_data

.glue_7         0x000506ec        0x0
 .glue_7        0x00000000        0x0 linker stubs

.glue_7t        0x000506ec        0x0
 .glue_7t       0x00000000        0x0 linker stubs

.vfp11_veneer   0x000506ec        0x0
 .vfp11_veneer  0x00000000        0x0 linker stubs

.v4_bx          0x000506ec        0x0
 .v4_bx         0x00000000        0x0 linker stubs

.iplt           0x000506ec        0x0
 .iplt          0x00000000        0x0 c:/siliconlabs/simplicitystudio/v4/developer/toolchains/gnu_arm/4.9_2015q3/bin/../lib/gcc/arm-none-eabi/4.9.3/armv7e-m/softfp/crtbegin.o

.ARM.extab
 *(.ARM.extab* .gnu.linkonce.armextab.*)
                0x000506ec                __exidx_start = .

.ARM.exidx      0x000506ec        0x8
 *(.ARM.exidx* .gnu.linkonce.armexidx.*)
 .ARM.exidx     0x000506ec        0x8 c:/siliconlabs/simplicitystudio/v4/developer/toolchains/gnu_arm/4.9_2015q3/bin/../lib/gcc/arm-none-eabi/4.9.3/../../../../arm-none-eabi/lib/armv7e-m/softfp/crt0.o
 .ARM.exidx     0x000506f4        0x0 c:/siliconlabs/simplicitystudio/v4/developer/toolchains/gnu_arm/4.9_2015q3/bin/../lib/gcc/arm-none-eabi/4.9.3/armv7e-m/softfp\libgcc.a(_divdi3.o)
                                  0x8 (size before relaxing)
 .ARM.exidx     0x000506f4        0x0 c:/siliconlabs/simplicitystudio/v4/developer/toolchains/gnu_arm/4.9_2015q3/bin/../lib/gcc/arm-none-eabi/4.9.3/armv7e-m/softfp\libgcc.a(_udivdi3.o)
                                  0x8 (size before relaxing)
                0x000506f4                __exidx_end = .
                0x000506f4                __etext = .

.rel.dyn        0x000506f4        0x0
 .rel.iplt      0x00000000        0x0 c:/siliconlabs/simplicitystudio/v4/developer/toolchains/gnu_arm/4.9_2015q3/bin/../lib/gcc/arm-none-eabi/4.9.3/armv7e-m/softfp/crtbegin.o

.data           0x20000000     0x1048 load address 0x000506f4
                0x20000000                __data_start__ = .
 *(vtable)
 *(.data*)
 .data.__mesh_dcd_ptr
                0x20000000        0x4 ./dcd_switch.o
                0x20000000                __mesh_dcd_ptr
 .data.bg_gattdb_data_attribute_field_2_data
                0x20000004       0x16 ./gatt_db.o
                0x20000004                bg_gattdb_data_attribute_field_2_data
 *fill*         0x2000001a        0x2 
 .data.bg_gattdb
                0x2000001c        0x4 ./gatt_db.o
                0x2000001c                bg_gattdb
 .data.conn_handle
                0x20000020        0x1 ./main.o
 *fill*         0x20000021        0x1 
 .data._my_index
                0x20000022        0x2 ./main.o
 .data.SystemLFXOClock
                0x20000024        0x4 ./device/EFR32_B_1_3_P/system_efr32bg13p.o
 .data.SystemHFXOClock
                0x20000028        0x4 ./device/EFR32_B_1_3_P/system_efr32bg13p.o
 .data.SystemCoreClock
                0x2000002c        0x4 ./device/EFR32_B_1_3_P/system_efr32bg13p.o
                0x2000002c                SystemCoreClock
 .data.SystemHfrcoFreq
                0x20000030        0x4 ./device/EFR32_B_1_3_P/system_efr32bg13p.o
                0x20000030                SystemHfrcoFreq
 .data.auxHfrcoFreq
                0x20000034        0x4 ./emlib/em_cmu.o
 .data.loops_per_jiffy
                0x20000038        0x4 ./kit/BRD4104A/udelay.o
                0x20000038                loops_per_jiffy
 .data.pDisplayDeviceDriverInitFunctions
                0x2000003c        0x8 ./kit_lcd/BRD4104A/display.o
 .data.pixelMatrixPool
                0x20000044        0x4 ./kit_lcd/BRD4104A/displayls013b7dh03.o
 .data.__fdlib_version
                0x20000048        0x1 c:/siliconlabs/simplicitystudio/v4/developer/toolchains/gnu_arm/4.9_2015q3/bin/../lib/gcc/arm-none-eabi/4.9.3/../../../../arm-none-eabi/lib/armv7e-m/softfp\libm.a(lib_a-s_lib_ver.o)
                0x20000048                __fdlib_version
 *fill*         0x20000049        0x7 
 .data          0x20000050      0x4f4 C:/SiliconLabs/SimplicityStudio/v4/developer/sdks/blemesh/v1.1//protocol/bluetooth_dev/lib/EFR32XG13X/GCC/\libbluetooth_mesh.a
 .data.pa_voltmode_config
                0x20000544        0x2 C:/SiliconLabs/SimplicityStudio/v4/developer/sdks/blemesh/v1.1//protocol/bluetooth_dev/lib/EFR32XG13X/GCC/\libbluetooth_mesh.a
 .data.current_db
                0x20000546        0x1 C:/SiliconLabs/SimplicityStudio/v4/developer/sdks/blemesh/v1.1//protocol/bluetooth_dev/lib/EFR32XG13X/GCC/\libbluetooth_mesh.a
 *fill*         0x20000547        0x1 
 .data.sar_config
                0x20000548       0x18 C:/SiliconLabs/SimplicityStudio/v4/developer/sdks/blemesh/v1.1//protocol/bluetooth_dev/lib/EFR32XG13X/GCC/\libbluetooth_mesh.a
 .data.RFSENSE_RfOscFreqHz
                0x20000560        0x4 C:/SiliconLabs/SimplicityStudio/v4/developer/sdks/blemesh/v1.1//protocol/bluetooth_dev/lib/EFR32XG13X/GCC/\libbluetooth_mesh.a
 .data.gatt_max_mtu_config
                0x20000564        0x2 C:/SiliconLabs/SimplicityStudio/v4/developer/sdks/blemesh/v1.1//protocol/bluetooth_dev/lib/EFR32XG13X/GCC/\libbluetooth_mesh.a
 *fill*         0x20000566        0x2 
 .data.impure_data
                0x20000568      0x428 c:/siliconlabs/simplicitystudio/v4/developer/toolchains/gnu_arm/4.9_2015q3/bin/../lib/gcc/arm-none-eabi/4.9.3/../../../../arm-none-eabi/lib/armv7e-m/softfp\libc.a(lib_a-impure.o)
 .data._impure_ptr
                0x20000990        0x4 c:/siliconlabs/simplicitystudio/v4/developer/toolchains/gnu_arm/4.9_2015q3/bin/../lib/gcc/arm-none-eabi/4.9.3/../../../../arm-none-eabi/lib/armv7e-m/softfp\libc.a(lib_a-impure.o)
                0x20000990                _impure_ptr
 .data.__malloc_av_
                0x20000994      0x408 c:/siliconlabs/simplicitystudio/v4/developer/toolchains/gnu_arm/4.9_2015q3/bin/../lib/gcc/arm-none-eabi/4.9.3/../../../../arm-none-eabi/lib/armv7e-m/softfp\libc.a(lib_a-mallocr.o)
                0x20000994                __malloc_av_
 .data.__malloc_trim_threshold
                0x20000d9c        0x4 c:/siliconlabs/simplicitystudio/v4/developer/toolchains/gnu_arm/4.9_2015q3/bin/../lib/gcc/arm-none-eabi/4.9.3/../../../../arm-none-eabi/lib/armv7e-m/softfp\libc.a(lib_a-mallocr.o)
                0x20000d9c                __malloc_trim_threshold
 .data.__malloc_sbrk_base
                0x20000da0        0x4 c:/siliconlabs/simplicitystudio/v4/developer/toolchains/gnu_arm/4.9_2015q3/bin/../lib/gcc/arm-none-eabi/4.9.3/../../../../arm-none-eabi/lib/armv7e-m/softfp\libc.a(lib_a-mallocr.o)
                0x20000da0                __malloc_sbrk_base
 .data.lconv    0x20000da4       0x38 c:/siliconlabs/simplicitystudio/v4/developer/toolchains/gnu_arm/4.9_2015q3/bin/../lib/gcc/arm-none-eabi/4.9.3/../../../../arm-none-eabi/lib/armv7e-m/softfp\libc.a(lib_a-locale.o)
 .data.lc_ctype_charset
                0x20000ddc       0x20 c:/siliconlabs/simplicitystudio/v4/developer/toolchains/gnu_arm/4.9_2015q3/bin/../lib/gcc/arm-none-eabi/4.9.3/../../../../arm-none-eabi/lib/armv7e-m/softfp\libc.a(lib_a-locale.o)
 .data.__mb_cur_max
                0x20000dfc        0x4 c:/siliconlabs/simplicitystudio/v4/developer/toolchains/gnu_arm/4.9_2015q3/bin/../lib/gcc/arm-none-eabi/4.9.3/../../../../arm-none-eabi/lib/armv7e-m/softfp\libc.a(lib_a-locale.o)
                0x20000dfc                __mb_cur_max
 .data.__wctomb
                0x20000e00        0x4 c:/siliconlabs/simplicitystudio/v4/developer/toolchains/gnu_arm/4.9_2015q3/bin/../lib/gcc/arm-none-eabi/4.9.3/../../../../arm-none-eabi/lib/armv7e-m/softfp\libc.a(lib_a-wctomb_r.o)
                0x20000e00                __wctomb
                0x20000e04                . = ALIGN (0x4)
 *(.ram)
 .ram           0x20000e04      0x234 ./emlib/em_msc.o
                0x20000e04                mscRfAssertEFM
                0x20000e08                MSC_LoadVerifyAddress
                0x20000e58                MSC_LoadWriteData
                0x20000f00                MSC_WriteWordI
                0x20000f7c                MSC_ErasePage
                0x20000ffc                MSC_WriteWord
                0x20001004                MSC_WriteWordFast
                0x2000100c                MSC_MassErase
                0x20001038                . = ALIGN (0x4)
                0x20001038                PROVIDE (__preinit_array_start, .)
 *(.preinit_array)
                0x20001038                PROVIDE (__preinit_array_end, .)
                0x20001038                . = ALIGN (0x4)
                0x20001038                PROVIDE (__init_array_start, .)
 *(SORT(.init_array.*))
 .init_array.00000
                0x20001038        0x4 c:/siliconlabs/simplicitystudio/v4/developer/toolchains/gnu_arm/4.9_2015q3/bin/../lib/gcc/arm-none-eabi/4.9.3/../../../../arm-none-eabi/lib/armv7e-m/softfp\libc.a(lib_a-__call_atexit.o)
 *(.init_array)
 .init_array    0x2000103c        0x4 c:/siliconlabs/simplicitystudio/v4/developer/toolchains/gnu_arm/4.9_2015q3/bin/../lib/gcc/arm-none-eabi/4.9.3/armv7e-m/softfp/crtbegin.o
                0x20001040                PROVIDE (__init_array_end, .)
                0x20001040                . = ALIGN (0x4)
                0x20001040                PROVIDE (__fini_array_start, .)
 *(SORT(.fini_array.*))
 *(.fini_array)
 .fini_array    0x20001040        0x4 c:/siliconlabs/simplicitystudio/v4/developer/toolchains/gnu_arm/4.9_2015q3/bin/../lib/gcc/arm-none-eabi/4.9.3/armv7e-m/softfp/crtbegin.o
                0x20001044                PROVIDE (__fini_array_end, .)
 *(.jcr*)
 .jcr           0x20001044        0x0 c:/siliconlabs/simplicitystudio/v4/developer/toolchains/gnu_arm/4.9_2015q3/bin/../lib/gcc/arm-none-eabi/4.9.3/armv7e-m/softfp/crtbegin.o
 .jcr           0x20001044        0x4 c:/siliconlabs/simplicitystudio/v4/developer/toolchains/gnu_arm/4.9_2015q3/bin/../lib/gcc/arm-none-eabi/4.9.3/armv7e-m/softfp/crtend.o
                0x20001048                . = ALIGN (0x4)
                0x20001048                __data_end__ = .

.igot.plt       0x20001048        0x0 load address 0x0005173c
 .igot.plt      0x00000000        0x0 c:/siliconlabs/simplicitystudio/v4/developer/toolchains/gnu_arm/4.9_2015q3/bin/../lib/gcc/arm-none-eabi/4.9.3/armv7e-m/softfp/crtbegin.o

.bss            0x20001100     0x5bb8 load address 0x00051800
                0x20001100                . = ALIGN (0x4)
                0x20001100                __bss_start__ = .
 *(.bss*)
 .bss           0x20001100       0x1c c:/siliconlabs/simplicitystudio/v4/developer/toolchains/gnu_arm/4.9_2015q3/bin/../lib/gcc/arm-none-eabi/4.9.3/armv7e-m/softfp/crtbegin.o
 .bss.deviceHeader
                0x2000111c        0x4 ./graphics.o
 .bss.glibContext
                0x20001120       0x2c ./graphics.o
 .bss.graphLineNum
                0x2000114c        0x1 ./graphics.o
 *fill*         0x2000114d        0x1 
 .bss._my_address
                0x2000114e        0x2 ./main.o
 .bss.trid      0x20001150        0x1 ./main.o
 *fill*         0x20001151        0x3 
 .bss.LCD_data  0x20001154       0xe0 ./main.o
 .bss.lightbulb_state
                0x20001234        0x4 ./main.o
 .bss.request_count
                0x20001238        0x1 ./main.o
 .bss.num_connections
                0x20001239        0x1 ./main.o
 .bss.switch_pos
                0x2000123a        0x1 ./main.o
 *fill*         0x2000123b        0x1 
 .bss.chTable   0x2000123c       0x80 ./emdrv/dmadrv.o
 .bss.dmaXfer   0x200012bc      0x100 ./emdrv/dmadrv.o
 .bss.gpioCallbacks
                0x200013bc       0x40 ./emdrv/gpiointerrupt.o
 .bss.sleepCallback
                0x200013fc        0x4 ./emdrv/sleep.o
 .bss.sleepBlockCnt
                0x20001400        0x2 ./emdrv/sleep.o
 *fill*         0x20001402        0x2 
 .bss.sleepContext
                0x20001404        0xc ./emdrv/sleep.o
 .bss.highCallback
                0x20001410        0x4 ./emdrv/tempdrv.o
 .bss.calibrationTEMP
                0x20001414        0x4 ./emdrv/tempdrv.o
 .bss.nullCallback
                0x20001418        0x8 ./emdrv/tempdrv.o
 .bss.lowCallback
                0x20001420        0x4 ./emdrv/tempdrv.o
 .bss.calibrationEMU
                0x20001424        0x4 ./emdrv/tempdrv.o
 .bss.tempdrvHighCallbacks
                0x20001428       0x28 ./emdrv/tempdrv.o
 .bss.tempdrvLowCallbacks
                0x20001450       0x28 ./emdrv/tempdrv.o
 .bss.TEMPDRV_InitState
                0x20001478        0x1 ./emdrv/tempdrv.o
 *fill*         0x20001479        0x1 
 .bss.dcdcEm01LoadCurrent_mA
                0x2000147a        0x2 ./emlib/em_emu.o
 .bss.dcdcReverseCurrentControl
                0x2000147c        0x2 ./emlib/em_emu.o
 *fill*         0x2000147e        0x2 
 .bss.vScaleEM01Config
                0x20001480        0x1 ./emlib/em_emu.o
 *fill*         0x20001481        0x1 
 .bss.dcdcMaxCurrent_mA
                0x20001482        0x2 ./emlib/em_emu.o
 .bss.cmuStatus.6241
                0x20001484        0x4 ./emlib/em_emu.o
 .bss.vScaleStatus.6243
                0x20001488        0x1 ./emlib/em_emu.o
 .bss.hfClock.6242
                0x20001489        0x1 ./emlib/em_emu.o
 *fill*         0x2000148a        0x2 
 .bss.pixelMatrixBuffer
                0x2000148c        0x4 ./glib/BRD4104A/dmd_display.o
 .bss.displayDevice
                0x20001490       0x2c ./glib/BRD4104A/dmd_display.o
 .bss.dimensions
                0x200014bc        0xc ./glib/BRD4104A/dmd_display.o
 .bss.moduleInitialized
                0x200014c8        0x1 ./glib/BRD4104A/dmd_display.o
 *fill*         0x200014c9        0x3 
 .bss.devicesRegistered
                0x200014cc        0x4 ./kit_lcd/BRD4104A/display.o
 .bss.deviceTable
                0x200014d0       0x2c ./kit_lcd/BRD4104A/display.o
 .bss.moduleInitialized
                0x200014fc        0x1 ./kit_lcd/BRD4104A/display.o
 *fill*         0x200014fd        0x3 
 .bss.pixelMatrixPoolBase
                0x20001500      0x800 ./kit_lcd/BRD4104A/displayls013b7dh03.o
 .bss.heap_end.6883
                0x20001d00        0x4 ./serial_vcom/retargetio.o
 .bss.LFtoCRLF  0x20001d04        0x1 ./serial_vcom/retargetserial.o
 *fill*         0x20001d05        0x3 
 .bss.rxBuffer  0x20001d08        0x8 ./serial_vcom/retargetserial.o
 .bss.initialized
                0x20001d10        0x1 ./serial_vcom/retargetserial.o
 *fill*         0x20001d11        0x3 
 .bss.rxWriteIndex
                0x20001d14        0x4 ./serial_vcom/retargetserial.o
 .bss.rxReadIndex
                0x20001d18        0x4 ./serial_vcom/retargetserial.o
 .bss.rxCount   0x20001d1c        0x4 ./serial_vcom/retargetserial.o
 .bss.TIMER_INT_SERVED
                0x20001d20        0x1 ./src/timer0.o
                0x20001d20                TIMER_INT_SERVED
 *fill*         0x20001d21        0x3 
 .bss.reg       0x20001d24        0x4 ./stack/bt_mesh_stack/mesh_lib.o
 .bss.regs      0x20001d28        0x4 ./stack/bt_mesh_stack/mesh_lib.o
 .bss.lib_malloc_fn
                0x20001d2c        0x4 ./stack/bt_mesh_stack/mesh_lib.o
 .bss.lib_free_fn
                0x20001d30        0x4 ./stack/bt_mesh_stack/mesh_lib.o
 *fill*         0x20001d34        0x4 
 .bss           0x20001d38     0x115c C:/SiliconLabs/SimplicityStudio/v4/developer/sdks/blemesh/v1.1//protocol/bluetooth_dev/lib/EFR32XG13X/GCC/\libbluetooth_mesh.a
                0x20001d48                bgapi_ep_cmd_buf
                0x20001dfc                gecko_cmd_msg
                0x20001e00                gecko_rsp_msg
 .bss.gecko_evt_msgs
                0x20002e94        0x4 C:/SiliconLabs/SimplicityStudio/v4/developer/sdks/blemesh/v1.1//protocol/bluetooth_dev/lib/EFR32XG13X/GCC/\libbluetooth_mesh.a
 *fill*         0x20002e98       0x68 
 .bss.gecko_vector_table
                0x20002f00       0xfc C:/SiliconLabs/SimplicityStudio/v4/developer/sdks/blemesh/v1.1//protocol/bluetooth_dev/lib/EFR32XG13X/GCC/\libbluetooth_mesh.a
 .bss.ll_to_hci_buf
                0x20002ffc        0x4 C:/SiliconLabs/SimplicityStudio/v4/developer/sdks/blemesh/v1.1//protocol/bluetooth_dev/lib/EFR32XG13X/GCC/\libbluetooth_mesh.a
 .bss.stack_update_callback
                0x20003000        0x4 C:/SiliconLabs/SimplicityStudio/v4/developer/sdks/blemesh/v1.1//protocol/bluetooth_dev/lib/EFR32XG13X/GCC/\libbluetooth_mesh.a
 .bss.suppress_bgapi_adv_reports
                0x20003004        0x1 C:/SiliconLabs/SimplicityStudio/v4/developer/sdks/blemesh/v1.1//protocol/bluetooth_dev/lib/EFR32XG13X/GCC/\libbluetooth_mesh.a
 *fill*         0x20003005        0x1 
 .bss.legacy_maxadv_events
                0x20003006        0x2 C:/SiliconLabs/SimplicityStudio/v4/developer/sdks/blemesh/v1.1//protocol/bluetooth_dev/lib/EFR32XG13X/GCC/\libbluetooth_mesh.a
 .bss.fcds      0x20003008        0x1 C:/SiliconLabs/SimplicityStudio/v4/developer/sdks/blemesh/v1.1//protocol/bluetooth_dev/lib/EFR32XG13X/GCC/\libbluetooth_mesh.a
 *fill*         0x20003009        0x3 
 .bss.currRfFrequency
                0x2000300c        0x4 C:/SiliconLabs/SimplicityStudio/v4/developer/sdks/blemesh/v1.1//protocol/bluetooth_dev/lib/EFR32XG13X/GCC/\libbluetooth_mesh.a
 .bss.wrapCntOverflows
                0x20003010        0x1 C:/SiliconLabs/SimplicityStudio/v4/developer/sdks/blemesh/v1.1//protocol/bluetooth_dev/lib/EFR32XG13X/GCC/\libbluetooth_mesh.a
 *fill*         0x20003011        0x3 
 .bss.__malloc_max_total_mem
                0x20003014        0x4 c:/siliconlabs/simplicitystudio/v4/developer/toolchains/gnu_arm/4.9_2015q3/bin/../lib/gcc/arm-none-eabi/4.9.3/../../../../arm-none-eabi/lib/armv7e-m/softfp\libc.a(lib_a-mallocr.o)
                0x20003014                __malloc_max_total_mem
 .bss.__malloc_max_sbrked_mem
                0x20003018        0x4 c:/siliconlabs/simplicitystudio/v4/developer/toolchains/gnu_arm/4.9_2015q3/bin/../lib/gcc/arm-none-eabi/4.9.3/../../../../arm-none-eabi/lib/armv7e-m/softfp\libc.a(lib_a-mallocr.o)
                0x20003018                __malloc_max_sbrked_mem
 .bss.__malloc_top_pad
                0x2000301c        0x4 c:/siliconlabs/simplicitystudio/v4/developer/toolchains/gnu_arm/4.9_2015q3/bin/../lib/gcc/arm-none-eabi/4.9.3/../../../../arm-none-eabi/lib/armv7e-m/softfp\libc.a(lib_a-mallocr.o)
                0x2000301c                __malloc_top_pad
 .bss.__malloc_current_mallinfo
                0x20003020       0x28 c:/siliconlabs/simplicitystudio/v4/developer/toolchains/gnu_arm/4.9_2015q3/bin/../lib/gcc/arm-none-eabi/4.9.3/../../../../arm-none-eabi/lib/armv7e-m/softfp\libc.a(lib_a-mallocr.o)
                0x20003020                __malloc_current_mallinfo
 *(COMMON)
 COMMON         0x20003048     0x3590 ./main.o
                0x20003048                current
                0x20003058                bluetooth_stack_heap
                0x200065c8                target
 COMMON         0x200065d8       0x10 ./glib/BRD4104A/dmd_display.o
                0x200065d8                dirtyRows
 COMMON         0x200065e8      0x6cc C:/SiliconLabs/SimplicityStudio/v4/developer/sdks/blemesh/v1.1//protocol/bluetooth_dev/lib/EFR32XG13X/GCC/\libbluetooth_mesh.a
                0x200065e8                txPower24LpCurves
                0x200065ec                user_signals
                0x200065f0                mbedtls_cipher_supported
                0x20006618                bg_gap
                0x20006644                ll_events
                0x20006648                msg_sender
                0x2000664c                ll_hci
                0x20006650                deferred_event_sender
                0x20006654                txPower24HpCurves
                0x20006658                btlePublicDevAddr
                0x2000665e                ll_channelmap
                0x20006684                db_store
                0x2000668c                bg_pool_pools
                0x2000676c                ubt_callback
                0x20006770                ll_radioHandle
                0x20006774                ll_adv_state
                0x20006780                PROTIMER_scheduledRxEnable
                0x20006788                convDecodeBuffer
                0x200067c8                ll_radio
                0x200067f0                prov_caps
                0x200067f4                ll
                0x20006814                used_acls
                0x20006818                gecko_apihandler_rsp
                0x20006848                PROTIMER_softwareTimerTimeout
                0x20006850                test_lib_handler
                0x20006854                bg_store_sender
                0x20006858                ll_dtm
                0x2000688c                BUFC_RxBuffer
                0x20006a8c                mesh_sender
                0x20006a90                rcIrCalData
                0x20006aa2                PROTIMER_scheduledOverflows
                0x20006aa8                txPowerSgCurves
                0x20006aac                ll_to_hci_data_event_sender
                0x20006ab0                usch
                0x20006ac0                current_bg_gattdb
                0x20006ac4                bg_event_handlers
                0x20006aec                node_handle
                0x20006af0                ll_scan
                0x20006b44                hci_status
                0x20006b6c                address_resolver
                0x20006b74                smp
                0x20006ca8                piecewiseSegments
                0x20006cac                timer_overflow
                0x20006cb0                ll_task_callback
 COMMON         0x20006cb4        0x4 c:/siliconlabs/simplicitystudio/v4/developer/toolchains/gnu_arm/4.9_2015q3/bin/../lib/gcc/arm-none-eabi/4.9.3/../../../../arm-none-eabi/lib/armv7e-m/softfp\libc.a(lib_a-reent.o)
                0x20006cb4                errno
                0x20006cb8                . = ALIGN (0x4)
                0x20006cb8                __bss_end__ = .

.heap           0x20006cb8     0x1200
                0x20006cb8                __HeapBase = .
                0x20006cb8                __end__ = .
                0x20006cb8                end = __end__
                0x20006cb8                _end = __end__
 *(.heap*)
 .heap          0x20006cb8     0x1200 ./device/EFR32_B_1_3_P/gcc/startup_efr32bg13p.o
                0x20007eb8                __HeapLimit = .

.stack_dummy    0x20007eb8      0xa00
 *(.stack*)
 .stack         0x20007eb8      0xa00 ./device/EFR32_B_1_3_P/gcc/startup_efr32bg13p.o
                0x20010000                __StackTop = (ORIGIN (RAM) + 0x10000)
                0x2000f600                __StackLimit = (__StackTop - SIZEOF (.stack_dummy))
                0x20010000                PROVIDE (__stack, __StackTop)
                0x00000001                ASSERT ((__StackLimit >= __HeapLimit), region RAM overflowed with stack)
                0x00000001                ASSERT ((0x80000 >= (__etext + SIZEOF (.data))), FLASH memory overflowed !)
OUTPUT(btmesh-WindowModule.axf elf32-littlearm)

.ARM.attributes
                0x00000000       0x2e
 .ARM.attributes
                0x00000000       0x22 c:/siliconlabs/simplicitystudio/v4/developer/toolchains/gnu_arm/4.9_2015q3/bin/../lib/gcc/arm-none-eabi/4.9.3/armv7e-m/softfp/crti.o
 .ARM.attributes
                0x00000022       0x32 c:/siliconlabs/simplicitystudio/v4/developer/toolchains/gnu_arm/4.9_2015q3/bin/../lib/gcc/arm-none-eabi/4.9.3/armv7e-m/softfp/crtbegin.o
 .ARM.attributes
                0x00000054       0x20 c:/siliconlabs/simplicitystudio/v4/developer/toolchains/gnu_arm/4.9_2015q3/bin/../lib/gcc/arm-none-eabi/4.9.3/../../../../arm-none-eabi/lib/armv7e-m/softfp/crt0.o
 .ARM.attributes
                0x00000074       0x37 ./dcd_switch.o
 .ARM.attributes
                0x000000ab       0x37 ./gatt_db.o
 .ARM.attributes
                0x000000e2       0x37 ./graphics.o
 .ARM.attributes
                0x00000119       0x37 ./main.o
 .ARM.attributes
                0x00000150       0x37 ./pti.o
 .ARM.attributes
                0x00000187       0x37 ./device/EFR32_B_1_3_P/gcc/startup_efr32bg13p.o
 .ARM.attributes
                0x000001be       0x37 ./device/EFR32_B_1_3_P/system_efr32bg13p.o
 .ARM.attributes
                0x000001f5       0x37 ./emdrv/dmadrv.o
 .ARM.attributes
                0x0000022c       0x37 ./emdrv/gpiointerrupt.o
 .ARM.attributes
                0x00000263       0x37 ./emdrv/sleep.o
 .ARM.attributes
                0x0000029a       0x37 ./emdrv/tempdrv.o
 .ARM.attributes
                0x000002d1       0x37 ./emlib/em_cmu.o
 .ARM.attributes
                0x00000308       0x37 ./emlib/em_core.o
 .ARM.attributes
                0x0000033f       0x37 ./emlib/em_crypto.o
 .ARM.attributes
                0x00000376       0x37 ./emlib/em_emu.o
 .ARM.attributes
                0x000003ad       0x37 ./emlib/em_gpio.o
 .ARM.attributes
                0x000003e4       0x37 ./emlib/em_i2c.o
 .ARM.attributes
                0x0000041b       0x37 ./emlib/em_msc.o
 .ARM.attributes
                0x00000452       0x37 ./emlib/em_rmu.o
 .ARM.attributes
                0x00000489       0x37 ./emlib/em_rtcc.o
 .ARM.attributes
                0x000004c0       0x37 ./emlib/em_system.o
 .ARM.attributes
                0x000004f7       0x37 ./emlib/em_usart.o
 .ARM.attributes
                0x0000052e       0x37 ./glib/BRD4104A/dmd_display.o
 .ARM.attributes
                0x00000565       0x37 ./glib/BRD4104A/glib.o
 .ARM.attributes
                0x0000059c       0x37 ./glib/BRD4104A/glib_font_normal_8x8.o
 .ARM.attributes
                0x000005d3       0x37 ./glib/BRD4104A/glib_rectangle.o
 .ARM.attributes
                0x0000060a       0x37 ./glib/BRD4104A/glib_string.o
 .ARM.attributes
                0x00000641       0x37 ./kit/BRD4104A/udelay.o
 .ARM.attributes
                0x00000678       0x37 ./kit_flashpwr/BRD4104A/mx25flash_spi.o
 .ARM.attributes
                0x000006af       0x37 ./kit_lcd/BRD4104A/display.o
 .ARM.attributes
                0x000006e6       0x37 ./kit_lcd/BRD4104A/displayls013b7dh03.o
 .ARM.attributes
                0x0000071d       0x37 ./kit_lcd/BRD4104A/displaypalemlib.o
 .ARM.attributes
                0x00000754       0x37 ./serial_vcom/retargetio.o
 .ARM.attributes
                0x0000078b       0x37 ./serial_vcom/retargetserial.o
 .ARM.attributes
                0x000007c2       0x37 ./src/InitDevice.o
 .ARM.attributes
                0x000007f9       0x37 ./src/i2c.o
 .ARM.attributes
                0x00000830       0x37 ./src/timer0.o
 .ARM.attributes
                0x00000867       0x37 ./stack/bt_mesh_stack/mesh_lib.o
 .ARM.attributes
                0x0000089e       0x32 c:/siliconlabs/simplicitystudio/v4/developer/toolchains/gnu_arm/4.9_2015q3/bin/../lib/gcc/arm-none-eabi/4.9.3/../../../../arm-none-eabi/lib/armv7e-m/softfp\libm.a(lib_a-w_pow.o)
 .ARM.attributes
                0x000008d0       0x32 c:/siliconlabs/simplicitystudio/v4/developer/toolchains/gnu_arm/4.9_2015q3/bin/../lib/gcc/arm-none-eabi/4.9.3/../../../../arm-none-eabi/lib/armv7e-m/softfp\libm.a(lib_a-e_pow.o)
 .ARM.attributes
                0x00000902       0x32 c:/siliconlabs/simplicitystudio/v4/developer/toolchains/gnu_arm/4.9_2015q3/bin/../lib/gcc/arm-none-eabi/4.9.3/../../../../arm-none-eabi/lib/armv7e-m/softfp\libm.a(lib_a-e_sqrt.o)
 .ARM.attributes
                0x00000934       0x32 c:/siliconlabs/simplicitystudio/v4/developer/toolchains/gnu_arm/4.9_2015q3/bin/../lib/gcc/arm-none-eabi/4.9.3/../../../../arm-none-eabi/lib/armv7e-m/softfp\libm.a(lib_a-s_fabs.o)
 .ARM.attributes
                0x00000966       0x32 c:/siliconlabs/simplicitystudio/v4/developer/toolchains/gnu_arm/4.9_2015q3/bin/../lib/gcc/arm-none-eabi/4.9.3/../../../../arm-none-eabi/lib/armv7e-m/softfp\libm.a(lib_a-s_finite.o)
 .ARM.attributes
                0x00000998       0x32 c:/siliconlabs/simplicitystudio/v4/developer/toolchains/gnu_arm/4.9_2015q3/bin/../lib/gcc/arm-none-eabi/4.9.3/../../../../arm-none-eabi/lib/armv7e-m/softfp\libm.a(lib_a-s_fpclassify.o)
 .ARM.attributes
                0x000009ca       0x32 c:/siliconlabs/simplicitystudio/v4/developer/toolchains/gnu_arm/4.9_2015q3/bin/../lib/gcc/arm-none-eabi/4.9.3/../../../../arm-none-eabi/lib/armv7e-m/softfp\libm.a(lib_a-s_lib_ver.o)
 .ARM.attributes
                0x000009fc       0x32 c:/siliconlabs/simplicitystudio/v4/developer/toolchains/gnu_arm/4.9_2015q3/bin/../lib/gcc/arm-none-eabi/4.9.3/../../../../arm-none-eabi/lib/armv7e-m/softfp\libm.a(lib_a-s_matherr.o)
 .ARM.attributes
                0x00000a2e       0x32 c:/siliconlabs/simplicitystudio/v4/developer/toolchains/gnu_arm/4.9_2015q3/bin/../lib/gcc/arm-none-eabi/4.9.3/../../../../arm-none-eabi/lib/armv7e-m/softfp\libm.a(lib_a-s_nan.o)
 .ARM.attributes
                0x00000a60       0x32 c:/siliconlabs/simplicitystudio/v4/developer/toolchains/gnu_arm/4.9_2015q3/bin/../lib/gcc/arm-none-eabi/4.9.3/../../../../arm-none-eabi/lib/armv7e-m/softfp\libm.a(lib_a-s_rint.o)
 .ARM.attributes
                0x00000a92       0x32 c:/siliconlabs/simplicitystudio/v4/developer/toolchains/gnu_arm/4.9_2015q3/bin/../lib/gcc/arm-none-eabi/4.9.3/../../../../arm-none-eabi/lib/armv7e-m/softfp\libm.a(lib_a-s_scalbn.o)
 .ARM.attributes
                0x00000ac4       0x32 c:/siliconlabs/simplicitystudio/v4/developer/toolchains/gnu_arm/4.9_2015q3/bin/../lib/gcc/arm-none-eabi/4.9.3/../../../../arm-none-eabi/lib/armv7e-m/softfp\libm.a(lib_a-s_copysign.o)
 .ARM.attributes
                0x00000af6       0x31 C:/SiliconLabs/SimplicityStudio/v4/developer/sdks/blemesh/v1.1//protocol/bluetooth_dev/lib/EFR32XG13X/GCC/\libbluetooth_mesh.a
 .ARM.attributes
                0x00000b27       0x22 c:/siliconlabs/simplicitystudio/v4/developer/toolchains/gnu_arm/4.9_2015q3/bin/../lib/gcc/arm-none-eabi/4.9.3/armv7e-m/softfp\libgcc.a(_arm_addsubdf3.o)
 .ARM.attributes
                0x00000b49       0x22 c:/siliconlabs/simplicitystudio/v4/developer/toolchains/gnu_arm/4.9_2015q3/bin/../lib/gcc/arm-none-eabi/4.9.3/armv7e-m/softfp\libgcc.a(_arm_muldivdf3.o)
 .ARM.attributes
                0x00000b6b       0x22 c:/siliconlabs/simplicitystudio/v4/developer/toolchains/gnu_arm/4.9_2015q3/bin/../lib/gcc/arm-none-eabi/4.9.3/armv7e-m/softfp\libgcc.a(_arm_cmpdf2.o)
 .ARM.attributes
                0x00000b8d       0x22 c:/siliconlabs/simplicitystudio/v4/developer/toolchains/gnu_arm/4.9_2015q3/bin/../lib/gcc/arm-none-eabi/4.9.3/armv7e-m/softfp\libgcc.a(_aeabi_ldivmod.o)
 .ARM.attributes
                0x00000baf       0x22 c:/siliconlabs/simplicitystudio/v4/developer/toolchains/gnu_arm/4.9_2015q3/bin/../lib/gcc/arm-none-eabi/4.9.3/armv7e-m/softfp\libgcc.a(_aeabi_uldivmod.o)
 .ARM.attributes
                0x00000bd1       0x32 c:/siliconlabs/simplicitystudio/v4/developer/toolchains/gnu_arm/4.9_2015q3/bin/../lib/gcc/arm-none-eabi/4.9.3/armv7e-m/softfp\libgcc.a(bpabi.o)
 .ARM.attributes
                0x00000c03       0x22 c:/siliconlabs/simplicitystudio/v4/developer/toolchains/gnu_arm/4.9_2015q3/bin/../lib/gcc/arm-none-eabi/4.9.3/armv7e-m/softfp\libgcc.a(_dvmd_tls.o)
 .ARM.attributes
                0x00000c25       0x32 c:/siliconlabs/simplicitystudio/v4/developer/toolchains/gnu_arm/4.9_2015q3/bin/../lib/gcc/arm-none-eabi/4.9.3/armv7e-m/softfp\libgcc.a(_divdi3.o)
 .ARM.attributes
                0x00000c57       0x32 c:/siliconlabs/simplicitystudio/v4/developer/toolchains/gnu_arm/4.9_2015q3/bin/../lib/gcc/arm-none-eabi/4.9.3/armv7e-m/softfp\libgcc.a(_udivdi3.o)
 .ARM.attributes
                0x00000c89       0x32 c:/siliconlabs/simplicitystudio/v4/developer/toolchains/gnu_arm/4.9_2015q3/bin/../lib/gcc/arm-none-eabi/4.9.3/../../../../arm-none-eabi/lib/armv7e-m/softfp\libc.a(lib_a-errno.o)
 .ARM.attributes
                0x00000cbb       0x32 c:/siliconlabs/simplicitystudio/v4/developer/toolchains/gnu_arm/4.9_2015q3/bin/../lib/gcc/arm-none-eabi/4.9.3/../../../../arm-none-eabi/lib/armv7e-m/softfp\libc.a(lib_a-exit.o)
 .ARM.attributes
                0x00000ced       0x32 c:/siliconlabs/simplicitystudio/v4/developer/toolchains/gnu_arm/4.9_2015q3/bin/../lib/gcc/arm-none-eabi/4.9.3/../../../../arm-none-eabi/lib/armv7e-m/softfp\libc.a(lib_a-impure.o)
 .ARM.attributes
                0x00000d1f       0x32 c:/siliconlabs/simplicitystudio/v4/developer/toolchains/gnu_arm/4.9_2015q3/bin/../lib/gcc/arm-none-eabi/4.9.3/../../../../arm-none-eabi/lib/armv7e-m/softfp\libc.a(lib_a-init.o)
 .ARM.attributes
                0x00000d51       0x32 c:/siliconlabs/simplicitystudio/v4/developer/toolchains/gnu_arm/4.9_2015q3/bin/../lib/gcc/arm-none-eabi/4.9.3/../../../../arm-none-eabi/lib/armv7e-m/softfp\libc.a(lib_a-malloc.o)
 .ARM.attributes
                0x00000d83       0x32 c:/siliconlabs/simplicitystudio/v4/developer/toolchains/gnu_arm/4.9_2015q3/bin/../lib/gcc/arm-none-eabi/4.9.3/../../../../arm-none-eabi/lib/armv7e-m/softfp\libc.a(lib_a-mallocr.o)
 .ARM.attributes
                0x00000db5       0x32 c:/siliconlabs/simplicitystudio/v4/developer/toolchains/gnu_arm/4.9_2015q3/bin/../lib/gcc/arm-none-eabi/4.9.3/../../../../arm-none-eabi/lib/armv7e-m/softfp\libc.a(lib_a-memcmp.o)
 .ARM.attributes
                0x00000de7       0x20 c:/siliconlabs/simplicitystudio/v4/developer/toolchains/gnu_arm/4.9_2015q3/bin/../lib/gcc/arm-none-eabi/4.9.3/../../../../arm-none-eabi/lib/armv7e-m/softfp\libc.a(lib_a-memcpy.o)
 .ARM.attributes
                0x00000e07       0x32 c:/siliconlabs/simplicitystudio/v4/developer/toolchains/gnu_arm/4.9_2015q3/bin/../lib/gcc/arm-none-eabi/4.9.3/../../../../arm-none-eabi/lib/armv7e-m/softfp\libc.a(lib_a-memmove.o)
 .ARM.attributes
                0x00000e39       0x32 c:/siliconlabs/simplicitystudio/v4/developer/toolchains/gnu_arm/4.9_2015q3/bin/../lib/gcc/arm-none-eabi/4.9.3/../../../../arm-none-eabi/lib/armv7e-m/softfp\libc.a(lib_a-memset.o)
 .ARM.attributes
                0x00000e6b       0x32 c:/siliconlabs/simplicitystudio/v4/developer/toolchains/gnu_arm/4.9_2015q3/bin/../lib/gcc/arm-none-eabi/4.9.3/../../../../arm-none-eabi/lib/armv7e-m/softfp\libc.a(lib_a-mlock.o)
 .ARM.attributes
                0x00000e9d       0x32 c:/siliconlabs/simplicitystudio/v4/developer/toolchains/gnu_arm/4.9_2015q3/bin/../lib/gcc/arm-none-eabi/4.9.3/../../../../arm-none-eabi/lib/armv7e-m/softfp\libc.a(lib_a-printf.o)
 .ARM.attributes
                0x00000ecf       0x32 c:/siliconlabs/simplicitystudio/v4/developer/toolchains/gnu_arm/4.9_2015q3/bin/../lib/gcc/arm-none-eabi/4.9.3/../../../../arm-none-eabi/lib/armv7e-m/softfp\libc.a(lib_a-sbrkr.o)
 .ARM.attributes
                0x00000f01       0x32 c:/siliconlabs/simplicitystudio/v4/developer/toolchains/gnu_arm/4.9_2015q3/bin/../lib/gcc/arm-none-eabi/4.9.3/../../../../arm-none-eabi/lib/armv7e-m/softfp\libc.a(lib_a-setvbuf.o)
 .ARM.attributes
                0x00000f33       0x32 c:/siliconlabs/simplicitystudio/v4/developer/toolchains/gnu_arm/4.9_2015q3/bin/../lib/gcc/arm-none-eabi/4.9.3/../../../../arm-none-eabi/lib/armv7e-m/softfp\libc.a(lib_a-sprintf.o)
 .ARM.attributes
                0x00000f65       0x32 c:/siliconlabs/simplicitystudio/v4/developer/toolchains/gnu_arm/4.9_2015q3/bin/../lib/gcc/arm-none-eabi/4.9.3/../../../../arm-none-eabi/lib/armv7e-m/softfp\libc.a(lib_a-strcat.o)
 .ARM.attributes
                0x00000f97       0x20 c:/siliconlabs/simplicitystudio/v4/developer/toolchains/gnu_arm/4.9_2015q3/bin/../lib/gcc/arm-none-eabi/4.9.3/../../../../arm-none-eabi/lib/armv7e-m/softfp\libc.a(lib_a-strcmp.o)
 .ARM.attributes
                0x00000fb7       0x32 c:/siliconlabs/simplicitystudio/v4/developer/toolchains/gnu_arm/4.9_2015q3/bin/../lib/gcc/arm-none-eabi/4.9.3/../../../../arm-none-eabi/lib/armv7e-m/softfp\libc.a(lib_a-strcpy.o)
 .ARM.attributes
                0x00000fe9       0x32 c:/siliconlabs/simplicitystudio/v4/developer/toolchains/gnu_arm/4.9_2015q3/bin/../lib/gcc/arm-none-eabi/4.9.3/../../../../arm-none-eabi/lib/armv7e-m/softfp\libc.a(lib_a-strlen.o)
 .ARM.attributes
                0x0000101b       0x32 c:/siliconlabs/simplicitystudio/v4/developer/toolchains/gnu_arm/4.9_2015q3/bin/../lib/gcc/arm-none-eabi/4.9.3/../../../../arm-none-eabi/lib/armv7e-m/softfp\libc.a(lib_a-svfprintf.o)
 .ARM.attributes
                0x0000104d       0x32 c:/siliconlabs/simplicitystudio/v4/developer/toolchains/gnu_arm/4.9_2015q3/bin/../lib/gcc/arm-none-eabi/4.9.3/../../../../arm-none-eabi/lib/armv7e-m/softfp\libc.a(lib_a-vfprintf.o)
 .ARM.attributes
                0x0000107f       0x32 c:/siliconlabs/simplicitystudio/v4/developer/toolchains/gnu_arm/4.9_2015q3/bin/../lib/gcc/arm-none-eabi/4.9.3/../../../../arm-none-eabi/lib/armv7e-m/softfp\libc.a(lib_a-wsetup.o)
 .ARM.attributes
                0x000010b1       0x32 c:/siliconlabs/simplicitystudio/v4/developer/toolchains/gnu_arm/4.9_2015q3/bin/../lib/gcc/arm-none-eabi/4.9.3/../../../../arm-none-eabi/lib/armv7e-m/softfp\libc.a(lib_a-__call_atexit.o)
 .ARM.attributes
                0x000010e3       0x32 c:/siliconlabs/simplicitystudio/v4/developer/toolchains/gnu_arm/4.9_2015q3/bin/../lib/gcc/arm-none-eabi/4.9.3/../../../../arm-none-eabi/lib/armv7e-m/softfp\libc.a(lib_a-atexit.o)
 .ARM.attributes
                0x00001115       0x32 c:/siliconlabs/simplicitystudio/v4/developer/toolchains/gnu_arm/4.9_2015q3/bin/../lib/gcc/arm-none-eabi/4.9.3/../../../../arm-none-eabi/lib/armv7e-m/softfp\libc.a(lib_a-dtoa.o)
 .ARM.attributes
                0x00001147       0x32 c:/siliconlabs/simplicitystudio/v4/developer/toolchains/gnu_arm/4.9_2015q3/bin/../lib/gcc/arm-none-eabi/4.9.3/../../../../arm-none-eabi/lib/armv7e-m/softfp\libc.a(lib_a-fflush.o)
 .ARM.attributes
                0x00001179       0x32 c:/siliconlabs/simplicitystudio/v4/developer/toolchains/gnu_arm/4.9_2015q3/bin/../lib/gcc/arm-none-eabi/4.9.3/../../../../arm-none-eabi/lib/armv7e-m/softfp\libc.a(lib_a-findfp.o)
 .ARM.attributes
                0x000011ab       0x32 c:/siliconlabs/simplicitystudio/v4/developer/toolchains/gnu_arm/4.9_2015q3/bin/../lib/gcc/arm-none-eabi/4.9.3/../../../../arm-none-eabi/lib/armv7e-m/softfp\libc.a(lib_a-fini.o)
 .ARM.attributes
                0x000011dd       0x32 c:/siliconlabs/simplicitystudio/v4/developer/toolchains/gnu_arm/4.9_2015q3/bin/../lib/gcc/arm-none-eabi/4.9.3/../../../../arm-none-eabi/lib/armv7e-m/softfp\libc.a(lib_a-freer.o)
 .ARM.attributes
                0x0000120f       0x32 c:/siliconlabs/simplicitystudio/v4/developer/toolchains/gnu_arm/4.9_2015q3/bin/../lib/gcc/arm-none-eabi/4.9.3/../../../../arm-none-eabi/lib/armv7e-m/softfp\libc.a(lib_a-fwalk.o)
 .ARM.attributes
                0x00001241       0x32 c:/siliconlabs/simplicitystudio/v4/developer/toolchains/gnu_arm/4.9_2015q3/bin/../lib/gcc/arm-none-eabi/4.9.3/../../../../arm-none-eabi/lib/armv7e-m/softfp\libc.a(lib_a-locale.o)
 .ARM.attributes
                0x00001273       0x32 c:/siliconlabs/simplicitystudio/v4/developer/toolchains/gnu_arm/4.9_2015q3/bin/../lib/gcc/arm-none-eabi/4.9.3/../../../../arm-none-eabi/lib/armv7e-m/softfp\libc.a(lib_a-makebuf.o)
 .ARM.attributes
                0x000012a5       0x32 c:/siliconlabs/simplicitystudio/v4/developer/toolchains/gnu_arm/4.9_2015q3/bin/../lib/gcc/arm-none-eabi/4.9.3/../../../../arm-none-eabi/lib/armv7e-m/softfp\libc.a(lib_a-memchr.o)
 .ARM.attributes
                0x000012d7       0x32 c:/siliconlabs/simplicitystudio/v4/developer/toolchains/gnu_arm/4.9_2015q3/bin/../lib/gcc/arm-none-eabi/4.9.3/../../../../arm-none-eabi/lib/armv7e-m/softfp\libc.a(lib_a-mprec.o)
 .ARM.attributes
                0x00001309       0x32 c:/siliconlabs/simplicitystudio/v4/developer/toolchains/gnu_arm/4.9_2015q3/bin/../lib/gcc/arm-none-eabi/4.9.3/../../../../arm-none-eabi/lib/armv7e-m/softfp\libc.a(lib_a-reent.o)
 .ARM.attributes
                0x0000133b       0x32 c:/siliconlabs/simplicitystudio/v4/developer/toolchains/gnu_arm/4.9_2015q3/bin/../lib/gcc/arm-none-eabi/4.9.3/../../../../arm-none-eabi/lib/armv7e-m/softfp\libc.a(lib_a-stdio.o)
 .ARM.attributes
                0x0000136d       0x32 c:/siliconlabs/simplicitystudio/v4/developer/toolchains/gnu_arm/4.9_2015q3/bin/../lib/gcc/arm-none-eabi/4.9.3/../../../../arm-none-eabi/lib/armv7e-m/softfp\libc.a(lib_a-svfiprintf.o)
 .ARM.attributes
                0x0000139f       0x32 c:/siliconlabs/simplicitystudio/v4/developer/toolchains/gnu_arm/4.9_2015q3/bin/../lib/gcc/arm-none-eabi/4.9.3/../../../../arm-none-eabi/lib/armv7e-m/softfp\libc.a(lib_a-vfiprintf.o)
 .ARM.attributes
                0x000013d1       0x32 c:/siliconlabs/simplicitystudio/v4/developer/toolchains/gnu_arm/4.9_2015q3/bin/../lib/gcc/arm-none-eabi/4.9.3/../../../../arm-none-eabi/lib/armv7e-m/softfp\libc.a(lib_a-writer.o)
 .ARM.attributes
                0x00001403       0x32 c:/siliconlabs/simplicitystudio/v4/developer/toolchains/gnu_arm/4.9_2015q3/bin/../lib/gcc/arm-none-eabi/4.9.3/../../../../arm-none-eabi/lib/armv7e-m/softfp\libc.a(lib_a-__atexit.o)
 .ARM.attributes
                0x00001435       0x32 c:/siliconlabs/simplicitystudio/v4/developer/toolchains/gnu_arm/4.9_2015q3/bin/../lib/gcc/arm-none-eabi/4.9.3/../../../../arm-none-eabi/lib/armv7e-m/softfp\libc.a(lib_a-callocr.o)
 .ARM.attributes
                0x00001467       0x32 c:/siliconlabs/simplicitystudio/v4/developer/toolchains/gnu_arm/4.9_2015q3/bin/../lib/gcc/arm-none-eabi/4.9.3/../../../../arm-none-eabi/lib/armv7e-m/softfp\libc.a(lib_a-closer.o)
 .ARM.attributes
                0x00001499       0x32 c:/siliconlabs/simplicitystudio/v4/developer/toolchains/gnu_arm/4.9_2015q3/bin/../lib/gcc/arm-none-eabi/4.9.3/../../../../arm-none-eabi/lib/armv7e-m/softfp\libc.a(lib_a-fclose.o)
 .ARM.attributes
                0x000014cb       0x32 c:/siliconlabs/simplicitystudio/v4/developer/toolchains/gnu_arm/4.9_2015q3/bin/../lib/gcc/arm-none-eabi/4.9.3/../../../../arm-none-eabi/lib/armv7e-m/softfp\libc.a(lib_a-fputwc.o)
 .ARM.attributes
                0x000014fd       0x32 c:/siliconlabs/simplicitystudio/v4/developer/toolchains/gnu_arm/4.9_2015q3/bin/../lib/gcc/arm-none-eabi/4.9.3/../../../../arm-none-eabi/lib/armv7e-m/softfp\libc.a(lib_a-fstatr.o)
 .ARM.attributes
                0x0000152f       0x32 c:/siliconlabs/simplicitystudio/v4/developer/toolchains/gnu_arm/4.9_2015q3/bin/../lib/gcc/arm-none-eabi/4.9.3/../../../../arm-none-eabi/lib/armv7e-m/softfp\libc.a(lib_a-fvwrite.o)
 .ARM.attributes
                0x00001561       0x32 c:/siliconlabs/simplicitystudio/v4/developer/toolchains/gnu_arm/4.9_2015q3/bin/../lib/gcc/arm-none-eabi/4.9.3/../../../../arm-none-eabi/lib/armv7e-m/softfp\libc.a(lib_a-isattyr.o)
 .ARM.attributes
                0x00001593       0x32 c:/siliconlabs/simplicitystudio/v4/developer/toolchains/gnu_arm/4.9_2015q3/bin/../lib/gcc/arm-none-eabi/4.9.3/../../../../arm-none-eabi/lib/armv7e-m/softfp\libc.a(lib_a-lseekr.o)
 .ARM.attributes
                0x000015c5       0x32 c:/siliconlabs/simplicitystudio/v4/developer/toolchains/gnu_arm/4.9_2015q3/bin/../lib/gcc/arm-none-eabi/4.9.3/../../../../arm-none-eabi/lib/armv7e-m/softfp\libc.a(lib_a-readr.o)
 .ARM.attributes
                0x000015f7       0x32 c:/siliconlabs/simplicitystudio/v4/developer/toolchains/gnu_arm/4.9_2015q3/bin/../lib/gcc/arm-none-eabi/4.9.3/../../../../arm-none-eabi/lib/armv7e-m/softfp\libc.a(lib_a-reallocr.o)
 .ARM.attributes
                0x00001629       0x32 c:/siliconlabs/simplicitystudio/v4/developer/toolchains/gnu_arm/4.9_2015q3/bin/../lib/gcc/arm-none-eabi/4.9.3/../../../../arm-none-eabi/lib/armv7e-m/softfp\libc.a(lib_a-wbuf.o)
 .ARM.attributes
                0x0000165b       0x32 c:/siliconlabs/simplicitystudio/v4/developer/toolchains/gnu_arm/4.9_2015q3/bin/../lib/gcc/arm-none-eabi/4.9.3/../../../../arm-none-eabi/lib/armv7e-m/softfp\libc.a(lib_a-wcrtomb.o)
 .ARM.attributes
                0x0000168d       0x32 c:/siliconlabs/simplicitystudio/v4/developer/toolchains/gnu_arm/4.9_2015q3/bin/../lib/gcc/arm-none-eabi/4.9.3/../../../../arm-none-eabi/lib/armv7e-m/softfp\libc.a(lib_a-wctomb_r.o)
 .ARM.attributes
                0x000016bf       0x22 c:/siliconlabs/simplicitystudio/v4/developer/toolchains/gnu_arm/4.9_2015q3/bin/../lib/gcc/arm-none-eabi/4.9.3/armv7e-m/softfp\libgcc.a(_arm_fixdfsi.o)
 .ARM.attributes
                0x000016e1       0x32 c:/siliconlabs/simplicitystudio/v4/developer/toolchains/gnu_arm/4.9_2015q3/bin/../lib/gcc/arm-none-eabi/4.9.3/armv7e-m/softfp/crtend.o
 .ARM.attributes
                0x00001713       0x22 c:/siliconlabs/simplicitystudio/v4/developer/toolchains/gnu_arm/4.9_2015q3/bin/../lib/gcc/arm-none-eabi/4.9.3/armv7e-m/softfp/crtn.o

.comment        0x00000000       0x70
 .comment       0x00000000       0x70 ./dcd_switch.o
                                 0x71 (size before relaxing)
 .comment       0x00000000       0x71 ./gatt_db.o
 .comment       0x00000000       0x71 ./graphics.o
 .comment       0x00000000       0x71 ./main.o
 .comment       0x00000000       0x71 ./pti.o
 .comment       0x00000000       0x71 ./device/EFR32_B_1_3_P/gcc/startup_efr32bg13p.o
 .comment       0x00000000       0x71 ./device/EFR32_B_1_3_P/system_efr32bg13p.o
 .comment       0x00000000       0x71 ./emdrv/dmadrv.o
 .comment       0x00000000       0x71 ./emdrv/gpiointerrupt.o
 .comment       0x00000000       0x71 ./emdrv/sleep.o
 .comment       0x00000000       0x71 ./emdrv/tempdrv.o
 .comment       0x00000000       0x71 ./emlib/em_cmu.o
 .comment       0x00000000       0x71 ./emlib/em_core.o
 .comment       0x00000000       0x71 ./emlib/em_crypto.o
 .comment       0x00000000       0x71 ./emlib/em_emu.o
 .comment       0x00000000       0x71 ./emlib/em_gpio.o
 .comment       0x00000000       0x71 ./emlib/em_i2c.o
 .comment       0x00000000       0x71 ./emlib/em_msc.o
 .comment       0x00000000       0x71 ./emlib/em_rmu.o
 .comment       0x00000000       0x71 ./emlib/em_rtcc.o
 .comment       0x00000000       0x71 ./emlib/em_system.o
 .comment       0x00000000       0x71 ./emlib/em_usart.o
 .comment       0x00000000       0x71 ./glib/BRD4104A/dmd_display.o
 .comment       0x00000000       0x71 ./glib/BRD4104A/glib.o
 .comment       0x00000000       0x71 ./glib/BRD4104A/glib_font_normal_8x8.o
 .comment       0x00000000       0x71 ./glib/BRD4104A/glib_rectangle.o
 .comment       0x00000000       0x71 ./glib/BRD4104A/glib_string.o
 .comment       0x00000000       0x71 ./kit/BRD4104A/udelay.o
 .comment       0x00000000       0x71 ./kit_flashpwr/BRD4104A/mx25flash_spi.o
 .comment       0x00000000       0x71 ./kit_lcd/BRD4104A/display.o
 .comment       0x00000000       0x71 ./kit_lcd/BRD4104A/displayls013b7dh03.o
 .comment       0x00000000       0x71 ./kit_lcd/BRD4104A/displaypalemlib.o
 .comment       0x00000000       0x71 ./serial_vcom/retargetio.o
 .comment       0x00000000       0x71 ./serial_vcom/retargetserial.o
 .comment       0x00000000       0x71 ./src/InitDevice.o
 .comment       0x00000000       0x71 ./src/i2c.o
 .comment       0x00000000       0x71 ./src/timer0.o
 .comment       0x00000000       0x71 ./stack/bt_mesh_stack/mesh_lib.o
 .comment       0x00000000      0xe20 C:/SiliconLabs/SimplicityStudio/v4/developer/sdks/blemesh/v1.1//protocol/bluetooth_dev/lib/EFR32XG13X/GCC/\libbluetooth_mesh.a

.debug_info     0x00000000    0x38093
 .debug_info    0x00000000       0xe7 ./dcd_switch.o
 .debug_info    0x000000e7      0x55c ./gatt_db.o
 .debug_info    0x00000643      0x5c2 ./graphics.o
 .debug_info    0x00000c05     0x8f34 ./main.o
 .debug_info    0x00009b39     0x3766 ./pti.o
 .debug_info    0x0000d29f      0x1d3 ./device/EFR32_B_1_3_P/gcc/startup_efr32bg13p.o
 .debug_info    0x0000d472      0x8bc ./device/EFR32_B_1_3_P/system_efr32bg13p.o
 .debug_info    0x0000dd2e     0x18ea ./emdrv/dmadrv.o
 .debug_info    0x0000f618      0x8fb ./emdrv/gpiointerrupt.o
 .debug_info    0x0000ff13      0xb96 ./emdrv/sleep.o
 .debug_info    0x00010aa9     0x16e7 ./emdrv/tempdrv.o
 .debug_info    0x00012190     0x3b98 ./emlib/em_cmu.o
 .debug_info    0x00015d28      0xde3 ./emlib/em_core.o
 .debug_info    0x00016b0b     0x4a66 ./emlib/em_crypto.o
 .debug_info    0x0001b571     0x2e68 ./emlib/em_emu.o
 .debug_info    0x0001e3d9      0xe9c ./emlib/em_gpio.o
 .debug_info    0x0001f275      0xb83 ./emlib/em_i2c.o
 .debug_info    0x0001fdf8      0xab5 ./emlib/em_msc.o
 .debug_info    0x000208ad      0x32a ./emlib/em_rmu.o
 .debug_info    0x00020bd7      0xbc8 ./emlib/em_rtcc.o
 .debug_info    0x0002179f      0x273 ./emlib/em_system.o
 .debug_info    0x00021a12     0x1110 ./emlib/em_usart.o
 .debug_info    0x00022b22      0xc55 ./glib/BRD4104A/dmd_display.o
 .debug_info    0x00023777      0xc36 ./glib/BRD4104A/glib.o
 .debug_info    0x000243ad      0x19a ./glib/BRD4104A/glib_font_normal_8x8.o
 .debug_info    0x00024547      0x6b8 ./glib/BRD4104A/glib_rectangle.o
 .debug_info    0x00024bff      0x765 ./glib/BRD4104A/glib_string.o
 .debug_info    0x00025364     0x1294 ./kit/BRD4104A/udelay.o
 .debug_info    0x000265f8     0x528c ./kit_flashpwr/BRD4104A/mx25flash_spi.o
 .debug_info    0x0002b884      0x4bd ./kit_lcd/BRD4104A/display.o
 .debug_info    0x0002bd41      0xada ./kit_lcd/BRD4104A/displayls013b7dh03.o
 .debug_info    0x0002c81b     0x1057 ./kit_lcd/BRD4104A/displaypalemlib.o
 .debug_info    0x0002d872      0x4fb ./serial_vcom/retargetio.o
 .debug_info    0x0002dd6d     0x17ba ./serial_vcom/retargetserial.o
 .debug_info    0x0002f527     0x1751 ./src/InitDevice.o
 .debug_info    0x00030c78      0xd0a ./src/i2c.o
 .debug_info    0x00031982      0xa08 ./src/timer0.o
 .debug_info    0x0003238a     0x5d09 ./stack/bt_mesh_stack/mesh_lib.o

.debug_abbrev   0x00000000     0x6812
 .debug_abbrev  0x00000000       0x66 ./dcd_switch.o
 .debug_abbrev  0x00000066       0xbd ./gatt_db.o
 .debug_abbrev  0x00000123      0x206 ./graphics.o
 .debug_abbrev  0x00000329      0x6ac ./main.o
 .debug_abbrev  0x000009d5      0x1b2 ./pti.o
 .debug_abbrev  0x00000b87      0x104 ./device/EFR32_B_1_3_P/gcc/startup_efr32bg13p.o
 .debug_abbrev  0x00000c8b      0x207 ./device/EFR32_B_1_3_P/system_efr32bg13p.o
 .debug_abbrev  0x00000e92      0x380 ./emdrv/dmadrv.o
 .debug_abbrev  0x00001212      0x2ab ./emdrv/gpiointerrupt.o
 .debug_abbrev  0x000014bd      0x3e7 ./emdrv/sleep.o
 .debug_abbrev  0x000018a4      0x3a2 ./emdrv/tempdrv.o
 .debug_abbrev  0x00001c46      0x506 ./emlib/em_cmu.o
 .debug_abbrev  0x0000214c      0x2c4 ./emlib/em_core.o
 .debug_abbrev  0x00002410      0x361 ./emlib/em_crypto.o
 .debug_abbrev  0x00002771      0x49e ./emlib/em_emu.o
 .debug_abbrev  0x00002c0f      0x2d6 ./emlib/em_gpio.o
 .debug_abbrev  0x00002ee5      0x38a ./emlib/em_i2c.o
 .debug_abbrev  0x0000326f      0x2ca ./emlib/em_msc.o
 .debug_abbrev  0x00003539      0x1c6 ./emlib/em_rmu.o
 .debug_abbrev  0x000036ff      0x212 ./emlib/em_rtcc.o
 .debug_abbrev  0x00003911      0x116 ./emlib/em_system.o
 .debug_abbrev  0x00003a27      0x2de ./emlib/em_usart.o
 .debug_abbrev  0x00003d05      0x2ec ./glib/BRD4104A/dmd_display.o
 .debug_abbrev  0x00003ff1      0x367 ./glib/BRD4104A/glib.o
 .debug_abbrev  0x00004358       0xa7 ./glib/BRD4104A/glib_font_normal_8x8.o
 .debug_abbrev  0x000043ff      0x218 ./glib/BRD4104A/glib_rectangle.o
 .debug_abbrev  0x00004617      0x236 ./glib/BRD4104A/glib_string.o
 .debug_abbrev  0x0000484d      0x2eb ./kit/BRD4104A/udelay.o
 .debug_abbrev  0x00004b38      0x44c ./kit_flashpwr/BRD4104A/mx25flash_spi.o
 .debug_abbrev  0x00004f84      0x167 ./kit_lcd/BRD4104A/display.o
 .debug_abbrev  0x000050eb      0x2c6 ./kit_lcd/BRD4104A/displayls013b7dh03.o
 .debug_abbrev  0x000053b1      0x318 ./kit_lcd/BRD4104A/displaypalemlib.o
 .debug_abbrev  0x000056c9      0x1af ./serial_vcom/retargetio.o
 .debug_abbrev  0x00005878      0x356 ./serial_vcom/retargetserial.o
 .debug_abbrev  0x00005bce      0x249 ./src/InitDevice.o
 .debug_abbrev  0x00005e17      0x305 ./src/i2c.o
 .debug_abbrev  0x0000611c      0x27a ./src/timer0.o
 .debug_abbrev  0x00006396      0x47c ./stack/bt_mesh_stack/mesh_lib.o

.debug_aranges  0x00000000     0x1160
 .debug_aranges
                0x00000000       0x18 ./dcd_switch.o
 .debug_aranges
                0x00000018       0x18 ./gatt_db.o
 .debug_aranges
                0x00000030       0x30 ./graphics.o
 .debug_aranges
                0x00000060       0xe0 ./main.o
 .debug_aranges
                0x00000140       0x20 ./pti.o
 .debug_aranges
                0x00000160       0x28 ./device/EFR32_B_1_3_P/gcc/startup_efr32bg13p.o
 .debug_aranges
                0x00000188       0x68 ./device/EFR32_B_1_3_P/system_efr32bg13p.o
 .debug_aranges
                0x000001f0       0xa0 ./emdrv/dmadrv.o
 .debug_aranges
                0x00000290       0x40 ./emdrv/gpiointerrupt.o
 .debug_aranges
                0x000002d0       0x60 ./emdrv/sleep.o
 .debug_aranges
                0x00000330       0x68 ./emdrv/tempdrv.o
 .debug_aranges
                0x00000398      0x130 ./emlib/em_cmu.o
 .debug_aranges
                0x000004c8       0xe0 ./emlib/em_core.o
 .debug_aranges
                0x000005a8       0xa8 ./emlib/em_crypto.o
 .debug_aranges
                0x00000650      0x120 ./emlib/em_emu.o
 .debug_aranges
                0x00000770       0x48 ./emlib/em_gpio.o
 .debug_aranges
                0x000007b8       0x58 ./emlib/em_i2c.o
 .debug_aranges
                0x00000810       0x70 ./emlib/em_msc.o
 .debug_aranges
                0x00000880       0x30 ./emlib/em_rmu.o
 .debug_aranges
                0x000008b0       0x40 ./emlib/em_rtcc.o
 .debug_aranges
                0x000008f0       0x28 ./emlib/em_system.o
 .debug_aranges
                0x00000918       0xb8 ./emlib/em_usart.o
 .debug_aranges
                0x000009d0       0x90 ./glib/BRD4104A/dmd_display.o
 .debug_aranges
                0x00000a60       0x98 ./glib/BRD4104A/glib.o
 .debug_aranges
                0x00000af8       0x18 ./glib/BRD4104A/glib_font_normal_8x8.o
 .debug_aranges
                0x00000b10       0x38 ./glib/BRD4104A/glib_rectangle.o
 .debug_aranges
                0x00000b48       0x38 ./glib/BRD4104A/glib_string.o
 .debug_aranges
                0x00000b80       0x28 ./kit/BRD4104A/udelay.o
 .debug_aranges
                0x00000ba8      0x198 ./kit_flashpwr/BRD4104A/mx25flash_spi.o
 .debug_aranges
                0x00000d40       0x38 ./kit_lcd/BRD4104A/display.o
 .debug_aranges
                0x00000d78       0x58 ./kit_lcd/BRD4104A/displayls013b7dh03.o
 .debug_aranges
                0x00000dd0       0x80 ./kit_lcd/BRD4104A/displaypalemlib.o
 .debug_aranges
                0x00000e50       0x68 ./serial_vcom/retargetio.o
 .debug_aranges
                0x00000eb8       0x40 ./serial_vcom/retargetserial.o
 .debug_aranges
                0x00000ef8      0x140 ./src/InitDevice.o
 .debug_aranges
                0x00001038       0x50 ./src/i2c.o
 .debug_aranges
                0x00001088       0x38 ./src/timer0.o
 .debug_aranges
                0x000010c0       0xa0 ./stack/bt_mesh_stack/mesh_lib.o

.debug_line     0x00000000     0xd7d5
 .debug_line    0x00000000      0x19a ./dcd_switch.o
 .debug_line    0x0000019a      0x194 ./gatt_db.o
 .debug_line    0x0000032e      0x335 ./graphics.o
 .debug_line    0x00000663      0xe7e ./main.o
 .debug_line    0x000014e1      0x3ca ./pti.o
 .debug_line    0x000018ab      0x1c3 ./device/EFR32_B_1_3_P/gcc/startup_efr32bg13p.o
 .debug_line    0x00001a6e      0x340 ./device/EFR32_B_1_3_P/system_efr32bg13p.o
 .debug_line    0x00001dae      0x641 ./emdrv/dmadrv.o
 .debug_line    0x000023ef      0x45c ./emdrv/gpiointerrupt.o
 .debug_line    0x0000284b      0x494 ./emdrv/sleep.o
 .debug_line    0x00002cdf      0x706 ./emdrv/tempdrv.o
 .debug_line    0x000033e5      0xfa4 ./emlib/em_cmu.o
 .debug_line    0x00004389      0x570 ./emlib/em_core.o
 .debug_line    0x000048f9     0x10e1 ./emlib/em_crypto.o
 .debug_line    0x000059da      0xb6b ./emlib/em_emu.o
 .debug_line    0x00006545      0x478 ./emlib/em_gpio.o
 .debug_line    0x000069bd      0x50b ./emlib/em_i2c.o
 .debug_line    0x00006ec8      0x479 ./emlib/em_msc.o
 .debug_line    0x00007341      0x330 ./emlib/em_rmu.o
 .debug_line    0x00007671      0x3f8 ./emlib/em_rtcc.o
 .debug_line    0x00007a69      0x2ea ./emlib/em_system.o
 .debug_line    0x00007d53      0x569 ./emlib/em_usart.o
 .debug_line    0x000082bc      0x696 ./glib/BRD4104A/dmd_display.o
 .debug_line    0x00008952      0x47c ./glib/BRD4104A/glib.o
 .debug_line    0x00008dce      0x18d ./glib/BRD4104A/glib_font_normal_8x8.o
 .debug_line    0x00008f5b      0x2e7 ./glib/BRD4104A/glib_rectangle.o
 .debug_line    0x00009242      0x453 ./glib/BRD4104A/glib_string.o
 .debug_line    0x00009695      0x481 ./kit/BRD4104A/udelay.o
 .debug_line    0x00009b16      0xf35 ./kit_flashpwr/BRD4104A/mx25flash_spi.o
 .debug_line    0x0000aa4b      0x343 ./kit_lcd/BRD4104A/display.o
 .debug_line    0x0000ad8e      0x501 ./kit_lcd/BRD4104A/displayls013b7dh03.o
 .debug_line    0x0000b28f      0x570 ./kit_lcd/BRD4104A/displaypalemlib.o
 .debug_line    0x0000b7ff      0x2c4 ./serial_vcom/retargetio.o
 .debug_line    0x0000bac3      0x501 ./serial_vcom/retargetserial.o
 .debug_line    0x0000bfc4      0x5ce ./src/InitDevice.o
 .debug_line    0x0000c592      0x4a1 ./src/i2c.o
 .debug_line    0x0000ca33      0x36c ./src/timer0.o
 .debug_line    0x0000cd9f      0xa36 ./stack/bt_mesh_stack/mesh_lib.o

.debug_str      0x00000000    0x110c8
 .debug_str     0x00000000      0x1e8 ./dcd_switch.o
                                0x224 (size before relaxing)
 .debug_str     0x000001e8      0x53d ./gatt_db.o
                                0x745 (size before relaxing)
 .debug_str     0x00000725      0x2a7 ./graphics.o
                                0x526 (size before relaxing)
 .debug_str     0x000009cc     0x7b56 ./main.o
                               0x8473 (size before relaxing)
 .debug_str     0x00008522      0x1b6 ./pti.o
                               0x489d (size before relaxing)
 .debug_str     0x000086d8      0x106 ./device/EFR32_B_1_3_P/gcc/startup_efr32bg13p.o
                                0x2a9 (size before relaxing)
 .debug_str     0x000087de      0x44c ./device/EFR32_B_1_3_P/system_efr32bg13p.o
                                0x663 (size before relaxing)
 .debug_str     0x00008c2a     0x1192 ./emdrv/dmadrv.o
                               0x13ec (size before relaxing)
 .debug_str     0x00009dbc      0x38c ./emdrv/gpiointerrupt.o
                                0x6e8 (size before relaxing)
 .debug_str     0x0000a148      0x3fa ./emdrv/sleep.o
                                0x6bc (size before relaxing)
 .debug_str     0x0000a542      0x5ae ./emdrv/tempdrv.o
                                0xcad (size before relaxing)
 .debug_str     0x0000aaf0     0x1020 ./emlib/em_cmu.o
                               0x1a2f (size before relaxing)
 .debug_str     0x0000bb10      0x2fb ./emlib/em_core.o
                                0x832 (size before relaxing)
 .debug_str     0x0000be0b      0x791 ./emlib/em_crypto.o
                                0xa5e (size before relaxing)
 .debug_str     0x0000c59c      0xe4e ./emlib/em_emu.o
                               0x1dd4 (size before relaxing)
 .debug_str     0x0000d3ea      0x1b0 ./emlib/em_gpio.o
                                0x86c (size before relaxing)
 .debug_str     0x0000d59a      0x312 ./emlib/em_i2c.o
                                0x8b0 (size before relaxing)
 .debug_str     0x0000d8ac      0x269 ./emlib/em_msc.o
                                0x6cc (size before relaxing)
 .debug_str     0x0000db15      0x1b5 ./emlib/em_rmu.o
                                0x3b5 (size before relaxing)
 .debug_str     0x0000dcca      0x5d3 ./emlib/em_rtcc.o
                                0xaaa (size before relaxing)
 .debug_str     0x0000e29d      0x11f ./emlib/em_system.o
                                0x2ef (size before relaxing)
 .debug_str     0x0000e3bc      0x999 ./emlib/em_usart.o
                                0xf4f (size before relaxing)
 .debug_str     0x0000ed55      0x444 ./glib/BRD4104A/dmd_display.o
                                0x6c6 (size before relaxing)
 .debug_str     0x0000f199      0x1b2 ./glib/BRD4104A/glib.o
                                0x617 (size before relaxing)
 .debug_str     0x0000f34b       0x8d ./glib/BRD4104A/glib_font_normal_8x8.o
                                0x30c (size before relaxing)
 .debug_str     0x0000f3d8       0xd3 ./glib/BRD4104A/glib_rectangle.o
                                0x50c (size before relaxing)
 .debug_str     0x0000f4ab       0xe7 ./glib/BRD4104A/glib_string.o
                                0x4f3 (size before relaxing)
 .debug_str     0x0000f592      0x136 ./kit/BRD4104A/udelay.o
                                0xf84 (size before relaxing)
 .debug_str     0x0000f6c8      0x38f ./kit_flashpwr/BRD4104A/mx25flash_spi.o
                                0xf9c (size before relaxing)
 .debug_str     0x0000fa57      0x12d ./kit_lcd/BRD4104A/display.o
                                0x4bc (size before relaxing)
 .debug_str     0x0000fb84      0x1f8 ./kit_lcd/BRD4104A/displayls013b7dh03.o
                                0x6b7 (size before relaxing)
 .debug_str     0x0000fd7c       0xc6 ./kit_lcd/BRD4104A/displaypalemlib.o
                                0xdd5 (size before relaxing)
 .debug_str     0x0000fe42      0x1be ./serial_vcom/retargetio.o
                                0x3f9 (size before relaxing)
 .debug_str     0x00010000      0x45d ./serial_vcom/retargetserial.o
                               0x13a4 (size before relaxing)
 .debug_str     0x0001045d      0x53f ./src/InitDevice.o
                               0x1786 (size before relaxing)
 .debug_str     0x0001099c       0xac ./src/i2c.o
                                0x9c8 (size before relaxing)
 .debug_str     0x00010a48      0x36b ./src/timer0.o
                                0x8db (size before relaxing)
 .debug_str     0x00010db3      0x315 ./stack/bt_mesh_stack/mesh_lib.o
                               0x6e37 (size before relaxing)

.debug_loc      0x00000000    0x184ae
 .debug_loc     0x00000000      0x29e ./graphics.o
 .debug_loc     0x0000029e     0x1ef2 ./main.o
 .debug_loc     0x00002190       0x56 ./pti.o
 .debug_loc     0x000021e6       0x4b ./device/EFR32_B_1_3_P/gcc/startup_efr32bg13p.o
 .debug_loc     0x00002231       0xa8 ./device/EFR32_B_1_3_P/system_efr32bg13p.o
 .debug_loc     0x000022d9     0x10cb ./emdrv/dmadrv.o
 .debug_loc     0x000033a4      0x14f ./emdrv/gpiointerrupt.o
 .debug_loc     0x000034f3      0x2e7 ./emdrv/sleep.o
 .debug_loc     0x000037da      0x6e7 ./emdrv/tempdrv.o
 .debug_loc     0x00003ec1     0x301a ./emlib/em_cmu.o
 .debug_loc     0x00006edb      0x782 ./emlib/em_core.o
 .debug_loc     0x0000765d     0x5c33 ./emlib/em_crypto.o
 .debug_loc     0x0000d290     0x1ae3 ./emlib/em_emu.o
 .debug_loc     0x0000ed73      0x642 ./emlib/em_gpio.o
 .debug_loc     0x0000f3b5      0x7f9 ./emlib/em_i2c.o
 .debug_loc     0x0000fbae      0x65f ./emlib/em_msc.o
 .debug_loc     0x0001020d      0x16b ./emlib/em_rmu.o
 .debug_loc     0x00010378      0x13f ./emlib/em_rtcc.o
 .debug_loc     0x000104b7       0x9c ./emlib/em_system.o
 .debug_loc     0x00010553      0x6d1 ./emlib/em_usart.o
 .debug_loc     0x00010c24      0xfcf ./glib/BRD4104A/dmd_display.o
 .debug_loc     0x00011bf3      0xa66 ./glib/BRD4104A/glib.o
 .debug_loc     0x00012659      0x4b7 ./glib/BRD4104A/glib_rectangle.o
 .debug_loc     0x00012b10      0x9f6 ./glib/BRD4104A/glib_string.o
 .debug_loc     0x00013506      0x357 ./kit/BRD4104A/udelay.o
 .debug_loc     0x0001385d     0x1b58 ./kit_flashpwr/BRD4104A/mx25flash_spi.o
 .debug_loc     0x000153b5      0x269 ./kit_lcd/BRD4104A/display.o
 .debug_loc     0x0001561e      0x530 ./kit_lcd/BRD4104A/displayls013b7dh03.o
 .debug_loc     0x00015b4e      0x3a3 ./kit_lcd/BRD4104A/displaypalemlib.o
 .debug_loc     0x00015ef1      0x288 ./serial_vcom/retargetio.o
 .debug_loc     0x00016179      0x11d ./serial_vcom/retargetserial.o
 .debug_loc     0x00016296       0xc8 ./src/InitDevice.o
 .debug_loc     0x0001635e      0x31e ./src/i2c.o
 .debug_loc     0x0001667c       0xb0 ./src/timer0.o
 .debug_loc     0x0001672c     0x1d82 ./stack/bt_mesh_stack/mesh_lib.o

.debug_ranges   0x00000000     0x4240
 .debug_ranges  0x00000000       0x60 ./graphics.o
 .debug_ranges  0x00000060      0x638 ./main.o
 .debug_ranges  0x00000698       0x10 ./pti.o
 .debug_ranges  0x000006a8       0x18 ./device/EFR32_B_1_3_P/gcc/startup_efr32bg13p.o
 .debug_ranges  0x000006c0       0x58 ./device/EFR32_B_1_3_P/system_efr32bg13p.o
 .debug_ranges  0x00000718       0xa8 ./emdrv/dmadrv.o
 .debug_ranges  0x000007c0       0xa8 ./emdrv/gpiointerrupt.o
 .debug_ranges  0x00000868       0xb8 ./emdrv/sleep.o
 .debug_ranges  0x00000920      0x1e0 ./emdrv/tempdrv.o
 .debug_ranges  0x00000b00      0x6f0 ./emlib/em_cmu.o
 .debug_ranges  0x000011f0      0x100 ./emlib/em_core.o
 .debug_ranges  0x000012f0      0xf90 ./emlib/em_crypto.o
 .debug_ranges  0x00002280      0x3f0 ./emlib/em_emu.o
 .debug_ranges  0x00002670      0x1a8 ./emlib/em_gpio.o
 .debug_ranges  0x00002818      0x108 ./emlib/em_i2c.o
 .debug_ranges  0x00002920       0x98 ./emlib/em_msc.o
 .debug_ranges  0x000029b8       0x20 ./emlib/em_rmu.o
 .debug_ranges  0x000029d8       0x68 ./emlib/em_rtcc.o
 .debug_ranges  0x00002a40       0x18 ./emlib/em_system.o
 .debug_ranges  0x00002a58       0xa8 ./emlib/em_usart.o
 .debug_ranges  0x00002b00       0xc8 ./glib/BRD4104A/dmd_display.o
 .debug_ranges  0x00002bc8       0xb8 ./glib/BRD4104A/glib.o
 .debug_ranges  0x00002c80       0x58 ./glib/BRD4104A/glib_rectangle.o
 .debug_ranges  0x00002cd8       0x48 ./glib/BRD4104A/glib_string.o
 .debug_ranges  0x00002d20       0x98 ./kit/BRD4104A/udelay.o
 .debug_ranges  0x00002db8      0xd80 ./kit_flashpwr/BRD4104A/mx25flash_spi.o
 .debug_ranges  0x00003b38       0x28 ./kit_lcd/BRD4104A/display.o
 .debug_ranges  0x00003b60       0x60 ./kit_lcd/BRD4104A/displayls013b7dh03.o
 .debug_ranges  0x00003bc0       0xb0 ./kit_lcd/BRD4104A/displaypalemlib.o
 .debug_ranges  0x00003c70       0x58 ./serial_vcom/retargetio.o
 .debug_ranges  0x00003cc8       0x68 ./serial_vcom/retargetserial.o
 .debug_ranges  0x00003d30      0x148 ./src/InitDevice.o
 .debug_ranges  0x00003e78       0x90 ./src/i2c.o
 .debug_ranges  0x00003f08       0xc0 ./src/timer0.o
 .debug_ranges  0x00003fc8      0x278 ./stack/bt_mesh_stack/mesh_lib.o

.debug_frame    0x00000000     0x44b4
 .debug_frame   0x00000000       0x7c ./graphics.o
 .debug_frame   0x0000007c      0x320 ./main.o
 .debug_frame   0x0000039c       0x30 ./pti.o
 .debug_frame   0x000003cc       0x38 ./device/EFR32_B_1_3_P/gcc/startup_efr32bg13p.o
 .debug_frame   0x00000404       0xb8 ./device/EFR32_B_1_3_P/system_efr32bg13p.o
 .debug_frame   0x000004bc      0x230 ./emdrv/dmadrv.o
 .debug_frame   0x000006ec       0x80 ./emdrv/gpiointerrupt.o
 .debug_frame   0x0000076c       0xe0 ./emdrv/sleep.o
 .debug_frame   0x0000084c      0x124 ./emdrv/tempdrv.o
 .debug_frame   0x00000970      0x36c ./emlib/em_cmu.o
 .debug_frame   0x00000cdc      0x220 ./emlib/em_core.o
 .debug_frame   0x00000efc      0x26c ./emlib/em_crypto.o
 .debug_frame   0x00001168      0x364 ./emlib/em_emu.o
 .debug_frame   0x000014cc       0xa0 ./emlib/em_gpio.o
 .debug_frame   0x0000156c       0xe0 ./emlib/em_i2c.o
 .debug_frame   0x0000164c      0x10c ./emlib/em_msc.o
 .debug_frame   0x00001758       0x5c ./emlib/em_rmu.o
 .debug_frame   0x000017b4       0x90 ./emlib/em_rtcc.o
 .debug_frame   0x00001844       0x30 ./emlib/em_system.o
 .debug_frame   0x00001874      0x1d8 ./emlib/em_usart.o
 .debug_frame   0x00001a4c      0x1dc ./glib/BRD4104A/dmd_display.o
 .debug_frame   0x00001c28      0x1ec ./glib/BRD4104A/glib.o
 .debug_frame   0x00001e14       0x90 ./glib/BRD4104A/glib_rectangle.o
 .debug_frame   0x00001ea4       0xc4 ./glib/BRD4104A/glib_string.o
 .debug_frame   0x00001f68       0x50 ./kit/BRD4104A/udelay.o
 .debug_frame   0x00001fb8      0x5b8 ./kit_flashpwr/BRD4104A/mx25flash_spi.o
 .debug_frame   0x00002570       0x7c ./kit_lcd/BRD4104A/display.o
 .debug_frame   0x000025ec       0xf8 ./kit_lcd/BRD4104A/displayls013b7dh03.o
 .debug_frame   0x000026e4      0x138 ./kit_lcd/BRD4104A/displaypalemlib.o
 .debug_frame   0x0000281c       0xc8 ./serial_vcom/retargetio.o
 .debug_frame   0x000028e4       0x94 ./serial_vcom/retargetserial.o
 .debug_frame   0x00002978      0x2a8 ./src/InitDevice.o
 .debug_frame   0x00002c20       0xd8 ./src/i2c.o
 .debug_frame   0x00002cf8       0x74 ./src/timer0.o
 .debug_frame   0x00002d6c      0x298 ./stack/bt_mesh_stack/mesh_lib.o
 .debug_frame   0x00003004       0x44 c:/siliconlabs/simplicitystudio/v4/developer/toolchains/gnu_arm/4.9_2015q3/bin/../lib/gcc/arm-none-eabi/4.9.3/../../../../arm-none-eabi/lib/armv7e-m/softfp\libm.a(lib_a-w_pow.o)
 .debug_frame   0x00003048       0x64 c:/siliconlabs/simplicitystudio/v4/developer/toolchains/gnu_arm/4.9_2015q3/bin/../lib/gcc/arm-none-eabi/4.9.3/../../../../arm-none-eabi/lib/armv7e-m/softfp\libm.a(lib_a-e_pow.o)
 .debug_frame   0x000030ac       0x30 c:/siliconlabs/simplicitystudio/v4/developer/toolchains/gnu_arm/4.9_2015q3/bin/../lib/gcc/arm-none-eabi/4.9.3/../../../../arm-none-eabi/lib/armv7e-m/softfp\libm.a(lib_a-e_sqrt.o)
 .debug_frame   0x000030dc       0x20 c:/siliconlabs/simplicitystudio/v4/developer/toolchains/gnu_arm/4.9_2015q3/bin/../lib/gcc/arm-none-eabi/4.9.3/../../../../arm-none-eabi/lib/armv7e-m/softfp\libm.a(lib_a-s_fabs.o)
 .debug_frame   0x000030fc       0x20 c:/siliconlabs/simplicitystudio/v4/developer/toolchains/gnu_arm/4.9_2015q3/bin/../lib/gcc/arm-none-eabi/4.9.3/../../../../arm-none-eabi/lib/armv7e-m/softfp\libm.a(lib_a-s_finite.o)
 .debug_frame   0x0000311c       0x34 c:/siliconlabs/simplicitystudio/v4/developer/toolchains/gnu_arm/4.9_2015q3/bin/../lib/gcc/arm-none-eabi/4.9.3/../../../../arm-none-eabi/lib/armv7e-m/softfp\libm.a(lib_a-s_fpclassify.o)
 .debug_frame   0x00003150       0x20 c:/siliconlabs/simplicitystudio/v4/developer/toolchains/gnu_arm/4.9_2015q3/bin/../lib/gcc/arm-none-eabi/4.9.3/../../../../arm-none-eabi/lib/armv7e-m/softfp\libm.a(lib_a-s_matherr.o)
 .debug_frame   0x00003170       0x20 c:/siliconlabs/simplicitystudio/v4/developer/toolchains/gnu_arm/4.9_2015q3/bin/../lib/gcc/arm-none-eabi/4.9.3/../../../../arm-none-eabi/lib/armv7e-m/softfp\libm.a(lib_a-s_nan.o)
 .debug_frame   0x00003190       0x3c c:/siliconlabs/simplicitystudio/v4/developer/toolchains/gnu_arm/4.9_2015q3/bin/../lib/gcc/arm-none-eabi/4.9.3/../../../../arm-none-eabi/lib/armv7e-m/softfp\libm.a(lib_a-s_rint.o)
 .debug_frame   0x000031cc       0x30 c:/siliconlabs/simplicitystudio/v4/developer/toolchains/gnu_arm/4.9_2015q3/bin/../lib/gcc/arm-none-eabi/4.9.3/../../../../arm-none-eabi/lib/armv7e-m/softfp\libm.a(lib_a-s_scalbn.o)
 .debug_frame   0x000031fc       0x20 c:/siliconlabs/simplicitystudio/v4/developer/toolchains/gnu_arm/4.9_2015q3/bin/../lib/gcc/arm-none-eabi/4.9.3/../../../../arm-none-eabi/lib/armv7e-m/softfp\libm.a(lib_a-s_copysign.o)
 .debug_frame   0x0000321c       0x28 c:/siliconlabs/simplicitystudio/v4/developer/toolchains/gnu_arm/4.9_2015q3/bin/../lib/gcc/arm-none-eabi/4.9.3/armv7e-m/softfp\libgcc.a(_aeabi_ldivmod.o)
 .debug_frame   0x00003244       0x28 c:/siliconlabs/simplicitystudio/v4/developer/toolchains/gnu_arm/4.9_2015q3/bin/../lib/gcc/arm-none-eabi/4.9.3/armv7e-m/softfp\libgcc.a(_aeabi_uldivmod.o)
 .debug_frame   0x0000326c       0x50 c:/siliconlabs/simplicitystudio/v4/developer/toolchains/gnu_arm/4.9_2015q3/bin/../lib/gcc/arm-none-eabi/4.9.3/armv7e-m/softfp\libgcc.a(bpabi.o)
 .debug_frame   0x000032bc       0x34 c:/siliconlabs/simplicitystudio/v4/developer/toolchains/gnu_arm/4.9_2015q3/bin/../lib/gcc/arm-none-eabi/4.9.3/armv7e-m/softfp\libgcc.a(_divdi3.o)
 .debug_frame   0x000032f0       0x30 c:/siliconlabs/simplicitystudio/v4/developer/toolchains/gnu_arm/4.9_2015q3/bin/../lib/gcc/arm-none-eabi/4.9.3/armv7e-m/softfp\libgcc.a(_udivdi3.o)
 .debug_frame   0x00003320       0x20 c:/siliconlabs/simplicitystudio/v4/developer/toolchains/gnu_arm/4.9_2015q3/bin/../lib/gcc/arm-none-eabi/4.9.3/../../../../arm-none-eabi/lib/armv7e-m/softfp\libc.a(lib_a-errno.o)
 .debug_frame   0x00003340       0x28 c:/siliconlabs/simplicitystudio/v4/developer/toolchains/gnu_arm/4.9_2015q3/bin/../lib/gcc/arm-none-eabi/4.9.3/../../../../arm-none-eabi/lib/armv7e-m/softfp\libc.a(lib_a-exit.o)
 .debug_frame   0x00003368       0x2c c:/siliconlabs/simplicitystudio/v4/developer/toolchains/gnu_arm/4.9_2015q3/bin/../lib/gcc/arm-none-eabi/4.9.3/../../../../arm-none-eabi/lib/armv7e-m/softfp\libc.a(lib_a-init.o)
 .debug_frame   0x00003394       0x30 c:/siliconlabs/simplicitystudio/v4/developer/toolchains/gnu_arm/4.9_2015q3/bin/../lib/gcc/arm-none-eabi/4.9.3/../../../../arm-none-eabi/lib/armv7e-m/softfp\libc.a(lib_a-malloc.o)
 .debug_frame   0x000033c4       0x58 c:/siliconlabs/simplicitystudio/v4/developer/toolchains/gnu_arm/4.9_2015q3/bin/../lib/gcc/arm-none-eabi/4.9.3/../../../../arm-none-eabi/lib/armv7e-m/softfp\libc.a(lib_a-mallocr.o)
 .debug_frame   0x0000341c       0x38 c:/siliconlabs/simplicitystudio/v4/developer/toolchains/gnu_arm/4.9_2015q3/bin/../lib/gcc/arm-none-eabi/4.9.3/../../../../arm-none-eabi/lib/armv7e-m/softfp\libc.a(lib_a-memcmp.o)
 .debug_frame   0x00003454       0x30 c:/siliconlabs/simplicitystudio/v4/developer/toolchains/gnu_arm/4.9_2015q3/bin/../lib/gcc/arm-none-eabi/4.9.3/../../../../arm-none-eabi/lib/armv7e-m/softfp\libc.a(lib_a-memmove.o)
 .debug_frame   0x00003484       0x34 c:/siliconlabs/simplicitystudio/v4/developer/toolchains/gnu_arm/4.9_2015q3/bin/../lib/gcc/arm-none-eabi/4.9.3/../../../../arm-none-eabi/lib/armv7e-m/softfp\libc.a(lib_a-memset.o)
 .debug_frame   0x000034b8       0x30 c:/siliconlabs/simplicitystudio/v4/developer/toolchains/gnu_arm/4.9_2015q3/bin/../lib/gcc/arm-none-eabi/4.9.3/../../../../arm-none-eabi/lib/armv7e-m/softfp\libc.a(lib_a-mlock.o)
 .debug_frame   0x000034e8       0x74 c:/siliconlabs/simplicitystudio/v4/developer/toolchains/gnu_arm/4.9_2015q3/bin/../lib/gcc/arm-none-eabi/4.9.3/../../../../arm-none-eabi/lib/armv7e-m/softfp\libc.a(lib_a-printf.o)
 .debug_frame   0x0000355c       0x2c c:/siliconlabs/simplicitystudio/v4/developer/toolchains/gnu_arm/4.9_2015q3/bin/../lib/gcc/arm-none-eabi/4.9.3/../../../../arm-none-eabi/lib/armv7e-m/softfp\libc.a(lib_a-sbrkr.o)
 .debug_frame   0x00003588       0x30 c:/siliconlabs/simplicitystudio/v4/developer/toolchains/gnu_arm/4.9_2015q3/bin/../lib/gcc/arm-none-eabi/4.9.3/../../../../arm-none-eabi/lib/armv7e-m/softfp\libc.a(lib_a-setvbuf.o)
 .debug_frame   0x000035b8       0x84 c:/siliconlabs/simplicitystudio/v4/developer/toolchains/gnu_arm/4.9_2015q3/bin/../lib/gcc/arm-none-eabi/4.9.3/../../../../arm-none-eabi/lib/armv7e-m/softfp\libc.a(lib_a-sprintf.o)
 .debug_frame   0x0000363c       0x28 c:/siliconlabs/simplicitystudio/v4/developer/toolchains/gnu_arm/4.9_2015q3/bin/../lib/gcc/arm-none-eabi/4.9.3/../../../../arm-none-eabi/lib/armv7e-m/softfp\libc.a(lib_a-strcat.o)
 .debug_frame   0x00003664       0x20 c:/siliconlabs/simplicitystudio/v4/developer/toolchains/gnu_arm/4.9_2015q3/bin/../lib/gcc/arm-none-eabi/4.9.3/../../../../arm-none-eabi/lib/armv7e-m/softfp\libc.a(lib_a-strcpy.o)
 .debug_frame   0x00003684       0x20 c:/siliconlabs/simplicitystudio/v4/developer/toolchains/gnu_arm/4.9_2015q3/bin/../lib/gcc/arm-none-eabi/4.9.3/../../../../arm-none-eabi/lib/armv7e-m/softfp\libc.a(lib_a-strlen.o)
 .debug_frame   0x000036a4       0x40 c:/siliconlabs/simplicitystudio/v4/developer/toolchains/gnu_arm/4.9_2015q3/bin/../lib/gcc/arm-none-eabi/4.9.3/../../../../arm-none-eabi/lib/armv7e-m/softfp\libc.a(lib_a-svfprintf.o)
 .debug_frame   0x000036e4       0x90 c:/siliconlabs/simplicitystudio/v4/developer/toolchains/gnu_arm/4.9_2015q3/bin/../lib/gcc/arm-none-eabi/4.9.3/../../../../arm-none-eabi/lib/armv7e-m/softfp\libc.a(lib_a-vfprintf.o)
 .debug_frame   0x00003774       0x2c c:/siliconlabs/simplicitystudio/v4/developer/toolchains/gnu_arm/4.9_2015q3/bin/../lib/gcc/arm-none-eabi/4.9.3/../../../../arm-none-eabi/lib/armv7e-m/softfp\libc.a(lib_a-wsetup.o)
 .debug_frame   0x000037a0       0x50 c:/siliconlabs/simplicitystudio/v4/developer/toolchains/gnu_arm/4.9_2015q3/bin/../lib/gcc/arm-none-eabi/4.9.3/../../../../arm-none-eabi/lib/armv7e-m/softfp\libc.a(lib_a-__call_atexit.o)
 .debug_frame   0x000037f0       0x20 c:/siliconlabs/simplicitystudio/v4/developer/toolchains/gnu_arm/4.9_2015q3/bin/../lib/gcc/arm-none-eabi/4.9.3/../../../../arm-none-eabi/lib/armv7e-m/softfp\libc.a(lib_a-atexit.o)
 .debug_frame   0x00003810       0x88 c:/siliconlabs/simplicitystudio/v4/developer/toolchains/gnu_arm/4.9_2015q3/bin/../lib/gcc/arm-none-eabi/4.9.3/../../../../arm-none-eabi/lib/armv7e-m/softfp\libc.a(lib_a-dtoa.o)
 .debug_frame   0x00003898       0x6c c:/siliconlabs/simplicitystudio/v4/developer/toolchains/gnu_arm/4.9_2015q3/bin/../lib/gcc/arm-none-eabi/4.9.3/../../../../arm-none-eabi/lib/armv7e-m/softfp\libc.a(lib_a-fflush.o)
 .debug_frame   0x00003904      0x124 c:/siliconlabs/simplicitystudio/v4/developer/toolchains/gnu_arm/4.9_2015q3/bin/../lib/gcc/arm-none-eabi/4.9.3/../../../../arm-none-eabi/lib/armv7e-m/softfp\libc.a(lib_a-findfp.o)
 .debug_frame   0x00003a28       0x34 c:/siliconlabs/simplicitystudio/v4/developer/toolchains/gnu_arm/4.9_2015q3/bin/../lib/gcc/arm-none-eabi/4.9.3/../../../../arm-none-eabi/lib/armv7e-m/softfp\libc.a(lib_a-fini.o)
 .debug_frame   0x00003a5c       0x74 c:/siliconlabs/simplicitystudio/v4/developer/toolchains/gnu_arm/4.9_2015q3/bin/../lib/gcc/arm-none-eabi/4.9.3/../../../../arm-none-eabi/lib/armv7e-m/softfp\libc.a(lib_a-freer.o)
 .debug_frame   0x00003ad0       0x54 c:/siliconlabs/simplicitystudio/v4/developer/toolchains/gnu_arm/4.9_2015q3/bin/../lib/gcc/arm-none-eabi/4.9.3/../../../../arm-none-eabi/lib/armv7e-m/softfp\libc.a(lib_a-fwalk.o)
 .debug_frame   0x00003b24       0x9c c:/siliconlabs/simplicitystudio/v4/developer/toolchains/gnu_arm/4.9_2015q3/bin/../lib/gcc/arm-none-eabi/4.9.3/../../../../arm-none-eabi/lib/armv7e-m/softfp\libc.a(lib_a-locale.o)
 .debug_frame   0x00003bc0       0x48 c:/siliconlabs/simplicitystudio/v4/developer/toolchains/gnu_arm/4.9_2015q3/bin/../lib/gcc/arm-none-eabi/4.9.3/../../../../arm-none-eabi/lib/armv7e-m/softfp\libc.a(lib_a-makebuf.o)
 .debug_frame   0x00003c08       0x3c c:/siliconlabs/simplicitystudio/v4/developer/toolchains/gnu_arm/4.9_2015q3/bin/../lib/gcc/arm-none-eabi/4.9.3/../../../../arm-none-eabi/lib/armv7e-m/softfp\libc.a(lib_a-memchr.o)
 .debug_frame   0x00003c44      0x268 c:/siliconlabs/simplicitystudio/v4/developer/toolchains/gnu_arm/4.9_2015q3/bin/../lib/gcc/arm-none-eabi/4.9.3/../../../../arm-none-eabi/lib/armv7e-m/softfp\libc.a(lib_a-mprec.o)
 .debug_frame   0x00003eac       0x58 c:/siliconlabs/simplicitystudio/v4/developer/toolchains/gnu_arm/4.9_2015q3/bin/../lib/gcc/arm-none-eabi/4.9.3/../../../../arm-none-eabi/lib/armv7e-m/softfp\libc.a(lib_a-reent.o)
 .debug_frame   0x00003f04       0x88 c:/siliconlabs/simplicitystudio/v4/developer/toolchains/gnu_arm/4.9_2015q3/bin/../lib/gcc/arm-none-eabi/4.9.3/../../../../arm-none-eabi/lib/armv7e-m/softfp\libc.a(lib_a-stdio.o)
 .debug_frame   0x00003f8c       0x78 c:/siliconlabs/simplicitystudio/v4/developer/toolchains/gnu_arm/4.9_2015q3/bin/../lib/gcc/arm-none-eabi/4.9.3/../../../../arm-none-eabi/lib/armv7e-m/softfp\libc.a(lib_a-svfiprintf.o)
 .debug_frame   0x00004004       0xd8 c:/siliconlabs/simplicitystudio/v4/developer/toolchains/gnu_arm/4.9_2015q3/bin/../lib/gcc/arm-none-eabi/4.9.3/../../../../arm-none-eabi/lib/armv7e-m/softfp\libc.a(lib_a-vfiprintf.o)
 .debug_frame   0x000040dc       0x2c c:/siliconlabs/simplicitystudio/v4/developer/toolchains/gnu_arm/4.9_2015q3/bin/../lib/gcc/arm-none-eabi/4.9.3/../../../../arm-none-eabi/lib/armv7e-m/softfp\libc.a(lib_a-writer.o)
 .debug_frame   0x00004108       0x34 c:/siliconlabs/simplicitystudio/v4/developer/toolchains/gnu_arm/4.9_2015q3/bin/../lib/gcc/arm-none-eabi/4.9.3/../../../../arm-none-eabi/lib/armv7e-m/softfp\libc.a(lib_a-__atexit.o)
 .debug_frame   0x0000413c       0x28 c:/siliconlabs/simplicitystudio/v4/developer/toolchains/gnu_arm/4.9_2015q3/bin/../lib/gcc/arm-none-eabi/4.9.3/../../../../arm-none-eabi/lib/armv7e-m/softfp\libc.a(lib_a-callocr.o)
 .debug_frame   0x00004164       0x2c c:/siliconlabs/simplicitystudio/v4/developer/toolchains/gnu_arm/4.9_2015q3/bin/../lib/gcc/arm-none-eabi/4.9.3/../../../../arm-none-eabi/lib/armv7e-m/softfp\libc.a(lib_a-closer.o)
 .debug_frame   0x00004190       0x44 c:/siliconlabs/simplicitystudio/v4/developer/toolchains/gnu_arm/4.9_2015q3/bin/../lib/gcc/arm-none-eabi/4.9.3/../../../../arm-none-eabi/lib/armv7e-m/softfp\libc.a(lib_a-fclose.o)
 .debug_frame   0x000041d4       0x84 c:/siliconlabs/simplicitystudio/v4/developer/toolchains/gnu_arm/4.9_2015q3/bin/../lib/gcc/arm-none-eabi/4.9.3/../../../../arm-none-eabi/lib/armv7e-m/softfp\libc.a(lib_a-fputwc.o)
 .debug_frame   0x00004258       0x2c c:/siliconlabs/simplicitystudio/v4/developer/toolchains/gnu_arm/4.9_2015q3/bin/../lib/gcc/arm-none-eabi/4.9.3/../../../../arm-none-eabi/lib/armv7e-m/softfp\libc.a(lib_a-fstatr.o)
 .debug_frame   0x00004284       0x68 c:/siliconlabs/simplicitystudio/v4/developer/toolchains/gnu_arm/4.9_2015q3/bin/../lib/gcc/arm-none-eabi/4.9.3/../../../../arm-none-eabi/lib/armv7e-m/softfp\libc.a(lib_a-fvwrite.o)
 .debug_frame   0x000042ec       0x2c c:/siliconlabs/simplicitystudio/v4/developer/toolchains/gnu_arm/4.9_2015q3/bin/../lib/gcc/arm-none-eabi/4.9.3/../../../../arm-none-eabi/lib/armv7e-m/softfp\libc.a(lib_a-isattyr.o)
 .debug_frame   0x00004318       0x2c c:/siliconlabs/simplicitystudio/v4/developer/toolchains/gnu_arm/4.9_2015q3/bin/../lib/gcc/arm-none-eabi/4.9.3/../../../../arm-none-eabi/lib/armv7e-m/softfp\libc.a(lib_a-lseekr.o)
 .debug_frame   0x00004344       0x2c c:/siliconlabs/simplicitystudio/v4/developer/toolchains/gnu_arm/4.9_2015q3/bin/../lib/gcc/arm-none-eabi/4.9.3/../../../../arm-none-eabi/lib/armv7e-m/softfp\libc.a(lib_a-readr.o)
 .debug_frame   0x00004370       0x60 c:/siliconlabs/simplicitystudio/v4/developer/toolchains/gnu_arm/4.9_2015q3/bin/../lib/gcc/arm-none-eabi/4.9.3/../../../../arm-none-eabi/lib/armv7e-m/softfp\libc.a(lib_a-reallocr.o)
 .debug_frame   0x000043d0       0x3c c:/siliconlabs/simplicitystudio/v4/developer/toolchains/gnu_arm/4.9_2015q3/bin/../lib/gcc/arm-none-eabi/4.9.3/../../../../arm-none-eabi/lib/armv7e-m/softfp\libc.a(lib_a-wbuf.o)
 .debug_frame   0x0000440c       0x60 c:/siliconlabs/simplicitystudio/v4/developer/toolchains/gnu_arm/4.9_2015q3/bin/../lib/gcc/arm-none-eabi/4.9.3/../../../../arm-none-eabi/lib/armv7e-m/softfp\libc.a(lib_a-wcrtomb.o)
 .debug_frame   0x0000446c       0x48 c:/siliconlabs/simplicitystudio/v4/developer/toolchains/gnu_arm/4.9_2015q3/bin/../lib/gcc/arm-none-eabi/4.9.3/../../../../arm-none-eabi/lib/armv7e-m/softfp\libc.a(lib_a-wctomb_r.o)
